   1               		.file	"main.c"
   2               	__SREG__ = 0x3f
   3               	__SP_H__ = 0x3e
   4               	__SP_L__ = 0x3d
   5               	__CCP__  = 0x34
   6               	__tmp_reg__ = 0
   7               	__zero_reg__ = 1
   8               		.global __do_copy_data
   9               		.global __do_clear_bss
  17               	.Ltext0:
  18               	.global	font
  19               		.section	.progmem.data,"a",@progbits
  22               	font:
  23 0000 00        		.byte	0
  24 0001 00        		.byte	0
  25 0002 00        		.byte	0
  26 0003 00        		.byte	0
  27 0004 00        		.byte	0
  28 0005 00        		.byte	0
  29 0006 00        		.byte	0
  30 0007 00        		.byte	0
  31 0008 00        		.byte	0
  32 0009 00        		.byte	0
  33 000a 00        		.byte	0
  34 000b 00        		.byte	0
  35 000c 00        		.byte	0
  36 000d 00        		.byte	0
  37 000e 00        		.byte	0
  38 000f 00        		.byte	0
  39 0010 00        		.byte	0
  40 0011 00        		.byte	0
  41 0012 00        		.byte	0
  42 0013 00        		.byte	0
  43 0014 00        		.byte	0
  44 0015 00        		.byte	0
  45 0016 00        		.byte	0
  46 0017 00        		.byte	0
  47 0018 00        		.byte	0
  48 0019 00        		.byte	0
  49 001a 00        		.byte	0
  50 001b 00        		.byte	0
  51 001c 00        		.byte	0
  52 001d 00        		.byte	0
  53 001e 00        		.byte	0
  54 001f 00        		.byte	0
  55 0020 00        		.byte	0
  56 0021 00        		.byte	0
  57 0022 00        		.byte	0
  58 0023 00        		.byte	0
  59 0024 00        		.byte	0
  60 0025 00        		.byte	0
  61 0026 00        		.byte	0
  62 0027 00        		.byte	0
  63 0028 00        		.byte	0
  64 0029 00        		.byte	0
  65 002a 00        		.byte	0
  66 002b 00        		.byte	0
  67 002c 00        		.byte	0
  68 002d 00        		.byte	0
  69 002e 00        		.byte	0
  70 002f 00        		.byte	0
  71 0030 00        		.byte	0
  72 0031 00        		.byte	0
  73 0032 00        		.byte	0
  74 0033 00        		.byte	0
  75 0034 00        		.byte	0
  76 0035 00        		.byte	0
  77 0036 00        		.byte	0
  78 0037 00        		.byte	0
  79 0038 00        		.byte	0
  80 0039 00        		.byte	0
  81 003a 00        		.byte	0
  82 003b 00        		.byte	0
  83 003c 00        		.byte	0
  84 003d 00        		.byte	0
  85 003e 00        		.byte	0
  86 003f 00        		.byte	0
  87 0040 00        		.byte	0
  88 0041 00        		.byte	0
  89 0042 00        		.byte	0
  90 0043 00        		.byte	0
  91 0044 00        		.byte	0
  92 0045 00        		.byte	0
  93 0046 00        		.byte	0
  94 0047 00        		.byte	0
  95 0048 00        		.byte	0
  96 0049 00        		.byte	0
  97 004a 00        		.byte	0
  98 004b 00        		.byte	0
  99 004c 00        		.byte	0
 100 004d 00        		.byte	0
 101 004e 00        		.byte	0
 102 004f 00        		.byte	0
 103 0050 00        		.byte	0
 104 0051 00        		.byte	0
 105 0052 00        		.byte	0
 106 0053 00        		.byte	0
 107 0054 00        		.byte	0
 108 0055 00        		.byte	0
 109 0056 00        		.byte	0
 110 0057 00        		.byte	0
 111 0058 00        		.byte	0
 112 0059 00        		.byte	0
 113 005a 00        		.byte	0
 114 005b 00        		.byte	0
 115 005c 00        		.byte	0
 116 005d 00        		.byte	0
 117 005e 00        		.byte	0
 118 005f 00        		.byte	0
 119 0060 00        		.byte	0
 120 0061 00        		.byte	0
 121 0062 00        		.byte	0
 122 0063 00        		.byte	0
 123 0064 00        		.byte	0
 124 0065 00        		.byte	0
 125 0066 00        		.byte	0
 126 0067 00        		.byte	0
 127 0068 00        		.byte	0
 128 0069 00        		.byte	0
 129 006a 00        		.byte	0
 130 006b 00        		.byte	0
 131 006c 00        		.byte	0
 132 006d 00        		.byte	0
 133 006e 00        		.byte	0
 134 006f 00        		.byte	0
 135 0070 00        		.byte	0
 136 0071 00        		.byte	0
 137 0072 00        		.byte	0
 138 0073 00        		.byte	0
 139 0074 00        		.byte	0
 140 0075 00        		.byte	0
 141 0076 00        		.byte	0
 142 0077 00        		.byte	0
 143 0078 00        		.byte	0
 144 0079 00        		.byte	0
 145 007a 00        		.byte	0
 146 007b 00        		.byte	0
 147 007c 00        		.byte	0
 148 007d 00        		.byte	0
 149 007e 00        		.byte	0
 150 007f 00        		.byte	0
 151 0080 00        		.byte	0
 152 0081 00        		.byte	0
 153 0082 00        		.byte	0
 154 0083 00        		.byte	0
 155 0084 00        		.byte	0
 156 0085 00        		.byte	0
 157 0086 00        		.byte	0
 158 0087 00        		.byte	0
 159 0088 00        		.byte	0
 160 0089 00        		.byte	0
 161 008a 00        		.byte	0
 162 008b 00        		.byte	0
 163 008c 00        		.byte	0
 164 008d 00        		.byte	0
 165 008e 00        		.byte	0
 166 008f 00        		.byte	0
 167 0090 00        		.byte	0
 168 0091 00        		.byte	0
 169 0092 00        		.byte	0
 170 0093 00        		.byte	0
 171 0094 00        		.byte	0
 172 0095 00        		.byte	0
 173 0096 00        		.byte	0
 174 0097 00        		.byte	0
 175 0098 00        		.byte	0
 176 0099 00        		.byte	0
 177 009a 00        		.byte	0
 178 009b 00        		.byte	0
 179 009c 00        		.byte	0
 180 009d 00        		.byte	0
 181 009e 00        		.byte	0
 182 009f 00        		.byte	0
 183 00a0 00        		.byte	0
 184 00a1 00        		.byte	0
 185 00a2 00        		.byte	0
 186 00a3 00        		.byte	0
 187 00a4 00        		.byte	0
 188 00a5 00        		.byte	0
 189 00a6 00        		.byte	0
 190 00a7 00        		.byte	0
 191 00a8 00        		.byte	0
 192 00a9 00        		.byte	0
 193 00aa 00        		.byte	0
 194 00ab 00        		.byte	0
 195 00ac 00        		.byte	0
 196 00ad 00        		.byte	0
 197 00ae 00        		.byte	0
 198 00af 00        		.byte	0
 199 00b0 00        		.byte	0
 200 00b1 00        		.byte	0
 201 00b2 00        		.byte	0
 202 00b3 00        		.byte	0
 203 00b4 00        		.byte	0
 204 00b5 00        		.byte	0
 205 00b6 00        		.byte	0
 206 00b7 00        		.byte	0
 207 00b8 00        		.byte	0
 208 00b9 00        		.byte	0
 209 00ba 00        		.byte	0
 210 00bb 00        		.byte	0
 211 00bc 00        		.byte	0
 212 00bd 00        		.byte	0
 213 00be 00        		.byte	0
 214 00bf 00        		.byte	0
 215 00c0 00        		.byte	0
 216 00c1 00        		.byte	0
 217 00c2 00        		.byte	0
 218 00c3 00        		.byte	0
 219 00c4 00        		.byte	0
 220 00c5 00        		.byte	0
 221 00c6 00        		.byte	0
 222 00c7 00        		.byte	0
 223 00c8 00        		.byte	0
 224 00c9 00        		.byte	0
 225 00ca 00        		.byte	0
 226 00cb 00        		.byte	0
 227 00cc 00        		.byte	0
 228 00cd 00        		.byte	0
 229 00ce 00        		.byte	0
 230 00cf 00        		.byte	0
 231 00d0 00        		.byte	0
 232 00d1 00        		.byte	0
 233 00d2 00        		.byte	0
 234 00d3 00        		.byte	0
 235 00d4 00        		.byte	0
 236 00d5 00        		.byte	0
 237 00d6 00        		.byte	0
 238 00d7 00        		.byte	0
 239 00d8 00        		.byte	0
 240 00d9 00        		.byte	0
 241 00da 00        		.byte	0
 242 00db 00        		.byte	0
 243 00dc 00        		.byte	0
 244 00dd 00        		.byte	0
 245 00de 00        		.byte	0
 246 00df 00        		.byte	0
 247 00e0 00        		.byte	0
 248 00e1 00        		.byte	0
 249 00e2 00        		.byte	0
 250 00e3 00        		.byte	0
 251 00e4 00        		.byte	0
 252 00e5 00        		.byte	0
 253 00e6 00        		.byte	0
 254 00e7 00        		.byte	0
 255 00e8 00        		.byte	0
 256 00e9 00        		.byte	0
 257 00ea 00        		.byte	0
 258 00eb 00        		.byte	0
 259 00ec 00        		.byte	0
 260 00ed 00        		.byte	0
 261 00ee 00        		.byte	0
 262 00ef 00        		.byte	0
 263 00f0 00        		.byte	0
 264 00f1 00        		.byte	0
 265 00f2 00        		.byte	0
 266 00f3 00        		.byte	0
 267 00f4 00        		.byte	0
 268 00f5 00        		.byte	0
 269 00f6 00        		.byte	0
 270 00f7 00        		.byte	0
 271 00f8 00        		.byte	0
 272 00f9 00        		.byte	0
 273 00fa 00        		.byte	0
 274 00fb 00        		.byte	0
 275 00fc 00        		.byte	0
 276 00fd 00        		.byte	0
 277 00fe 00        		.byte	0
 278 00ff 00        		.byte	0
 279 0100 00        		.byte	0
 280 0101 00        		.byte	0
 281 0102 00        		.byte	0
 282 0103 00        		.byte	0
 283 0104 00        		.byte	0
 284 0105 00        		.byte	0
 285 0106 00        		.byte	0
 286 0107 00        		.byte	0
 287 0108 00        		.byte	0
 288 0109 00        		.byte	0
 289 010a 00        		.byte	0
 290 010b 00        		.byte	0
 291 010c 00        		.byte	0
 292 010d 00        		.byte	0
 293 010e 00        		.byte	0
 294 010f 00        		.byte	0
 295 0110 00        		.byte	0
 296 0111 00        		.byte	0
 297 0112 00        		.byte	0
 298 0113 00        		.byte	0
 299 0114 00        		.byte	0
 300 0115 00        		.byte	0
 301 0116 00        		.byte	0
 302 0117 00        		.byte	0
 303 0118 00        		.byte	0
 304 0119 00        		.byte	0
 305 011a 00        		.byte	0
 306 011b 00        		.byte	0
 307 011c 00        		.byte	0
 308 011d 00        		.byte	0
 309 011e 00        		.byte	0
 310 011f 00        		.byte	0
 311 0120 00        		.byte	0
 312 0121 00        		.byte	0
 313 0122 00        		.byte	0
 314 0123 00        		.byte	0
 315 0124 00        		.byte	0
 316 0125 00        		.byte	0
 317 0126 00        		.byte	0
 318 0127 00        		.byte	0
 319 0128 00        		.byte	0
 320 0129 10        		.byte	16
 321 012a 10        		.byte	16
 322 012b 10        		.byte	16
 323 012c 10        		.byte	16
 324 012d 10        		.byte	16
 325 012e 10        		.byte	16
 326 012f 10        		.byte	16
 327 0130 00        		.byte	0
 328 0131 10        		.byte	16
 329 0132 28        		.byte	40
 330 0133 28        		.byte	40
 331 0134 28        		.byte	40
 332 0135 00        		.byte	0
 333 0136 00        		.byte	0
 334 0137 00        		.byte	0
 335 0138 00        		.byte	0
 336 0139 00        		.byte	0
 337 013a 00        		.byte	0
 338 013b 00        		.byte	0
 339 013c 28        		.byte	40
 340 013d 28        		.byte	40
 341 013e FE        		.byte	-2
 342 013f 28        		.byte	40
 343 0140 FE        		.byte	-2
 344 0141 28        		.byte	40
 345 0142 28        		.byte	40
 346 0143 00        		.byte	0
 347 0144 10        		.byte	16
 348 0145 7E        		.byte	126
 349 0146 90        		.byte	-112
 350 0147 90        		.byte	-112
 351 0148 7C        		.byte	124
 352 0149 12        		.byte	18
 353 014a 12        		.byte	18
 354 014b FC        		.byte	-4
 355 014c 10        		.byte	16
 356 014d E2        		.byte	-30
 357 014e A2        		.byte	-94
 358 014f E4        		.byte	-28
 359 0150 08        		.byte	8
 360 0151 10        		.byte	16
 361 0152 20        		.byte	32
 362 0153 4E        		.byte	78
 363 0154 8A        		.byte	-118
 364 0155 8E        		.byte	-114
 365 0156 20        		.byte	32
 366 0157 50        		.byte	80
 367 0158 50        		.byte	80
 368 0159 60        		.byte	96
 369 015a 60        		.byte	96
 370 015b 94        		.byte	-108
 371 015c 88        		.byte	-120
 372 015d 94        		.byte	-108
 373 015e 60        		.byte	96
 374 015f 10        		.byte	16
 375 0160 10        		.byte	16
 376 0161 20        		.byte	32
 377 0162 00        		.byte	0
 378 0163 00        		.byte	0
 379 0164 00        		.byte	0
 380 0165 00        		.byte	0
 381 0166 00        		.byte	0
 382 0167 00        		.byte	0
 383 0168 08        		.byte	8
 384 0169 10        		.byte	16
 385 016a 20        		.byte	32
 386 016b 20        		.byte	32
 387 016c 20        		.byte	32
 388 016d 20        		.byte	32
 389 016e 20        		.byte	32
 390 016f 10        		.byte	16
 391 0170 08        		.byte	8
 392 0171 20        		.byte	32
 393 0172 10        		.byte	16
 394 0173 08        		.byte	8
 395 0174 08        		.byte	8
 396 0175 08        		.byte	8
 397 0176 08        		.byte	8
 398 0177 08        		.byte	8
 399 0178 10        		.byte	16
 400 0179 20        		.byte	32
 401 017a 00        		.byte	0
 402 017b 00        		.byte	0
 403 017c 48        		.byte	72
 404 017d 30        		.byte	48
 405 017e FC        		.byte	-4
 406 017f 30        		.byte	48
 407 0180 48        		.byte	72
 408 0181 00        		.byte	0
 409 0182 00        		.byte	0
 410 0183 00        		.byte	0
 411 0184 00        		.byte	0
 412 0185 10        		.byte	16
 413 0186 10        		.byte	16
 414 0187 7C        		.byte	124
 415 0188 10        		.byte	16
 416 0189 10        		.byte	16
 417 018a 00        		.byte	0
 418 018b 00        		.byte	0
 419 018c 00        		.byte	0
 420 018d 00        		.byte	0
 421 018e 00        		.byte	0
 422 018f 00        		.byte	0
 423 0190 00        		.byte	0
 424 0191 00        		.byte	0
 425 0192 10        		.byte	16
 426 0193 10        		.byte	16
 427 0194 20        		.byte	32
 428 0195 00        		.byte	0
 429 0196 00        		.byte	0
 430 0197 00        		.byte	0
 431 0198 00        		.byte	0
 432 0199 7C        		.byte	124
 433 019a 00        		.byte	0
 434 019b 00        		.byte	0
 435 019c 00        		.byte	0
 436 019d 00        		.byte	0
 437 019e 00        		.byte	0
 438 019f 00        		.byte	0
 439 01a0 00        		.byte	0
 440 01a1 00        		.byte	0
 441 01a2 00        		.byte	0
 442 01a3 00        		.byte	0
 443 01a4 00        		.byte	0
 444 01a5 30        		.byte	48
 445 01a6 30        		.byte	48
 446 01a7 02        		.byte	2
 447 01a8 02        		.byte	2
 448 01a9 04        		.byte	4
 449 01aa 08        		.byte	8
 450 01ab 10        		.byte	16
 451 01ac 20        		.byte	32
 452 01ad 40        		.byte	64
 453 01ae 80        		.byte	-128
 454 01af 80        		.byte	-128
 455 01b0 38        		.byte	56
 456 01b1 44        		.byte	68
 457 01b2 82        		.byte	-126
 458 01b3 82        		.byte	-126
 459 01b4 82        		.byte	-126
 460 01b5 82        		.byte	-126
 461 01b6 82        		.byte	-126
 462 01b7 44        		.byte	68
 463 01b8 38        		.byte	56
 464 01b9 10        		.byte	16
 465 01ba 30        		.byte	48
 466 01bb 50        		.byte	80
 467 01bc 10        		.byte	16
 468 01bd 10        		.byte	16
 469 01be 10        		.byte	16
 470 01bf 10        		.byte	16
 471 01c0 10        		.byte	16
 472 01c1 7C        		.byte	124
 473 01c2 7C        		.byte	124
 474 01c3 82        		.byte	-126
 475 01c4 02        		.byte	2
 476 01c5 02        		.byte	2
 477 01c6 0C        		.byte	12
 478 01c7 30        		.byte	48
 479 01c8 C0        		.byte	-64
 480 01c9 82        		.byte	-126
 481 01ca FE        		.byte	-2
 482 01cb 7C        		.byte	124
 483 01cc 82        		.byte	-126
 484 01cd 02        		.byte	2
 485 01ce 04        		.byte	4
 486 01cf 18        		.byte	24
 487 01d0 04        		.byte	4
 488 01d1 02        		.byte	2
 489 01d2 82        		.byte	-126
 490 01d3 7C        		.byte	124
 491 01d4 08        		.byte	8
 492 01d5 18        		.byte	24
 493 01d6 28        		.byte	40
 494 01d7 48        		.byte	72
 495 01d8 88        		.byte	-120
 496 01d9 FE        		.byte	-2
 497 01da 08        		.byte	8
 498 01db 08        		.byte	8
 499 01dc 1C        		.byte	28
 500 01dd FE        		.byte	-2
 501 01de 80        		.byte	-128
 502 01df 80        		.byte	-128
 503 01e0 FC        		.byte	-4
 504 01e1 02        		.byte	2
 505 01e2 02        		.byte	2
 506 01e3 02        		.byte	2
 507 01e4 82        		.byte	-126
 508 01e5 7C        		.byte	124
 509 01e6 3C        		.byte	60
 510 01e7 40        		.byte	64
 511 01e8 80        		.byte	-128
 512 01e9 80        		.byte	-128
 513 01ea FC        		.byte	-4
 514 01eb 82        		.byte	-126
 515 01ec 82        		.byte	-126
 516 01ed 82        		.byte	-126
 517 01ee 7C        		.byte	124
 518 01ef FE        		.byte	-2
 519 01f0 02        		.byte	2
 520 01f1 02        		.byte	2
 521 01f2 04        		.byte	4
 522 01f3 08        		.byte	8
 523 01f4 10        		.byte	16
 524 01f5 10        		.byte	16
 525 01f6 10        		.byte	16
 526 01f7 10        		.byte	16
 527 01f8 7C        		.byte	124
 528 01f9 82        		.byte	-126
 529 01fa 82        		.byte	-126
 530 01fb 82        		.byte	-126
 531 01fc 7C        		.byte	124
 532 01fd 82        		.byte	-126
 533 01fe 82        		.byte	-126
 534 01ff 82        		.byte	-126
 535 0200 7C        		.byte	124
 536 0201 7C        		.byte	124
 537 0202 82        		.byte	-126
 538 0203 82        		.byte	-126
 539 0204 82        		.byte	-126
 540 0205 7E        		.byte	126
 541 0206 02        		.byte	2
 542 0207 02        		.byte	2
 543 0208 04        		.byte	4
 544 0209 78        		.byte	120
 545 020a 00        		.byte	0
 546 020b 00        		.byte	0
 547 020c 00        		.byte	0
 548 020d 10        		.byte	16
 549 020e 10        		.byte	16
 550 020f 00        		.byte	0
 551 0210 00        		.byte	0
 552 0211 10        		.byte	16
 553 0212 10        		.byte	16
 554 0213 00        		.byte	0
 555 0214 00        		.byte	0
 556 0215 00        		.byte	0
 557 0216 10        		.byte	16
 558 0217 10        		.byte	16
 559 0218 00        		.byte	0
 560 0219 10        		.byte	16
 561 021a 10        		.byte	16
 562 021b 20        		.byte	32
 563 021c 00        		.byte	0
 564 021d 04        		.byte	4
 565 021e 08        		.byte	8
 566 021f 10        		.byte	16
 567 0220 20        		.byte	32
 568 0221 10        		.byte	16
 569 0222 08        		.byte	8
 570 0223 04        		.byte	4
 571 0224 00        		.byte	0
 572 0225 00        		.byte	0
 573 0226 00        		.byte	0
 574 0227 00        		.byte	0
 575 0228 7C        		.byte	124
 576 0229 00        		.byte	0
 577 022a 00        		.byte	0
 578 022b 7C        		.byte	124
 579 022c 00        		.byte	0
 580 022d 00        		.byte	0
 581 022e 00        		.byte	0
 582 022f 20        		.byte	32
 583 0230 10        		.byte	16
 584 0231 08        		.byte	8
 585 0232 04        		.byte	4
 586 0233 08        		.byte	8
 587 0234 10        		.byte	16
 588 0235 20        		.byte	32
 589 0236 00        		.byte	0
 590 0237 38        		.byte	56
 591 0238 44        		.byte	68
 592 0239 04        		.byte	4
 593 023a 08        		.byte	8
 594 023b 10        		.byte	16
 595 023c 10        		.byte	16
 596 023d 00        		.byte	0
 597 023e 10        		.byte	16
 598 023f 10        		.byte	16
 599 0240 78        		.byte	120
 600 0241 84        		.byte	-124
 601 0242 84        		.byte	-124
 602 0243 BC        		.byte	-68
 603 0244 A4        		.byte	-92
 604 0245 BC        		.byte	-68
 605 0246 80        		.byte	-128
 606 0247 80        		.byte	-128
 607 0248 78        		.byte	120
 608 0249 30        		.byte	48
 609 024a 48        		.byte	72
 610 024b 84        		.byte	-124
 611 024c 84        		.byte	-124
 612 024d 84        		.byte	-124
 613 024e FC        		.byte	-4
 614 024f 84        		.byte	-124
 615 0250 84        		.byte	-124
 616 0251 84        		.byte	-124
 617 0252 F8        		.byte	-8
 618 0253 44        		.byte	68
 619 0254 44        		.byte	68
 620 0255 44        		.byte	68
 621 0256 78        		.byte	120
 622 0257 44        		.byte	68
 623 0258 44        		.byte	68
 624 0259 44        		.byte	68
 625 025a F8        		.byte	-8
 626 025b 38        		.byte	56
 627 025c 44        		.byte	68
 628 025d 80        		.byte	-128
 629 025e 80        		.byte	-128
 630 025f 80        		.byte	-128
 631 0260 80        		.byte	-128
 632 0261 80        		.byte	-128
 633 0262 44        		.byte	68
 634 0263 38        		.byte	56
 635 0264 F0        		.byte	-16
 636 0265 48        		.byte	72
 637 0266 44        		.byte	68
 638 0267 44        		.byte	68
 639 0268 44        		.byte	68
 640 0269 44        		.byte	68
 641 026a 44        		.byte	68
 642 026b 48        		.byte	72
 643 026c F0        		.byte	-16
 644 026d FC        		.byte	-4
 645 026e 84        		.byte	-124
 646 026f 80        		.byte	-128
 647 0270 A0        		.byte	-96
 648 0271 E0        		.byte	-32
 649 0272 A0        		.byte	-96
 650 0273 80        		.byte	-128
 651 0274 84        		.byte	-124
 652 0275 FC        		.byte	-4
 653 0276 FC        		.byte	-4
 654 0277 84        		.byte	-124
 655 0278 80        		.byte	-128
 656 0279 A0        		.byte	-96
 657 027a E0        		.byte	-32
 658 027b A0        		.byte	-96
 659 027c 80        		.byte	-128
 660 027d 80        		.byte	-128
 661 027e 80        		.byte	-128
 662 027f 38        		.byte	56
 663 0280 44        		.byte	68
 664 0281 80        		.byte	-128
 665 0282 80        		.byte	-128
 666 0283 80        		.byte	-128
 667 0284 9C        		.byte	-100
 668 0285 84        		.byte	-124
 669 0286 44        		.byte	68
 670 0287 3C        		.byte	60
 671 0288 84        		.byte	-124
 672 0289 84        		.byte	-124
 673 028a 84        		.byte	-124
 674 028b 84        		.byte	-124
 675 028c FC        		.byte	-4
 676 028d 84        		.byte	-124
 677 028e 84        		.byte	-124
 678 028f 84        		.byte	-124
 679 0290 84        		.byte	-124
 680 0291 38        		.byte	56
 681 0292 10        		.byte	16
 682 0293 10        		.byte	16
 683 0294 10        		.byte	16
 684 0295 10        		.byte	16
 685 0296 10        		.byte	16
 686 0297 10        		.byte	16
 687 0298 10        		.byte	16
 688 0299 38        		.byte	56
 689 029a 1C        		.byte	28
 690 029b 08        		.byte	8
 691 029c 08        		.byte	8
 692 029d 08        		.byte	8
 693 029e 08        		.byte	8
 694 029f 08        		.byte	8
 695 02a0 48        		.byte	72
 696 02a1 48        		.byte	72
 697 02a2 30        		.byte	48
 698 02a3 84        		.byte	-124
 699 02a4 88        		.byte	-120
 700 02a5 90        		.byte	-112
 701 02a6 A0        		.byte	-96
 702 02a7 C0        		.byte	-64
 703 02a8 A0        		.byte	-96
 704 02a9 90        		.byte	-112
 705 02aa 88        		.byte	-120
 706 02ab 84        		.byte	-124
 707 02ac E0        		.byte	-32
 708 02ad 40        		.byte	64
 709 02ae 40        		.byte	64
 710 02af 40        		.byte	64
 711 02b0 40        		.byte	64
 712 02b1 40        		.byte	64
 713 02b2 40        		.byte	64
 714 02b3 44        		.byte	68
 715 02b4 FC        		.byte	-4
 716 02b5 82        		.byte	-126
 717 02b6 C6        		.byte	-58
 718 02b7 AA        		.byte	-86
 719 02b8 92        		.byte	-110
 720 02b9 92        		.byte	-110
 721 02ba 82        		.byte	-126
 722 02bb 82        		.byte	-126
 723 02bc 82        		.byte	-126
 724 02bd 82        		.byte	-126
 725 02be 84        		.byte	-124
 726 02bf C4        		.byte	-60
 727 02c0 A4        		.byte	-92
 728 02c1 94        		.byte	-108
 729 02c2 8C        		.byte	-116
 730 02c3 84        		.byte	-124
 731 02c4 84        		.byte	-124
 732 02c5 84        		.byte	-124
 733 02c6 84        		.byte	-124
 734 02c7 78        		.byte	120
 735 02c8 84        		.byte	-124
 736 02c9 84        		.byte	-124
 737 02ca 84        		.byte	-124
 738 02cb 84        		.byte	-124
 739 02cc 84        		.byte	-124
 740 02cd 84        		.byte	-124
 741 02ce 84        		.byte	-124
 742 02cf 78        		.byte	120
 743 02d0 F8        		.byte	-8
 744 02d1 44        		.byte	68
 745 02d2 44        		.byte	68
 746 02d3 44        		.byte	68
 747 02d4 78        		.byte	120
 748 02d5 40        		.byte	64
 749 02d6 40        		.byte	64
 750 02d7 40        		.byte	64
 751 02d8 E0        		.byte	-32
 752 02d9 78        		.byte	120
 753 02da 84        		.byte	-124
 754 02db 84        		.byte	-124
 755 02dc 84        		.byte	-124
 756 02dd 84        		.byte	-124
 757 02de 84        		.byte	-124
 758 02df 94        		.byte	-108
 759 02e0 88        		.byte	-120
 760 02e1 74        		.byte	116
 761 02e2 F8        		.byte	-8
 762 02e3 44        		.byte	68
 763 02e4 44        		.byte	68
 764 02e5 44        		.byte	68
 765 02e6 78        		.byte	120
 766 02e7 50        		.byte	80
 767 02e8 48        		.byte	72
 768 02e9 44        		.byte	68
 769 02ea E4        		.byte	-28
 770 02eb 78        		.byte	120
 771 02ec 84        		.byte	-124
 772 02ed 80        		.byte	-128
 773 02ee 80        		.byte	-128
 774 02ef 78        		.byte	120
 775 02f0 04        		.byte	4
 776 02f1 04        		.byte	4
 777 02f2 84        		.byte	-124
 778 02f3 78        		.byte	120
 779 02f4 FE        		.byte	-2
 780 02f5 92        		.byte	-110
 781 02f6 10        		.byte	16
 782 02f7 10        		.byte	16
 783 02f8 10        		.byte	16
 784 02f9 10        		.byte	16
 785 02fa 10        		.byte	16
 786 02fb 10        		.byte	16
 787 02fc 38        		.byte	56
 788 02fd 84        		.byte	-124
 789 02fe 84        		.byte	-124
 790 02ff 84        		.byte	-124
 791 0300 84        		.byte	-124
 792 0301 84        		.byte	-124
 793 0302 84        		.byte	-124
 794 0303 84        		.byte	-124
 795 0304 84        		.byte	-124
 796 0305 78        		.byte	120
 797 0306 84        		.byte	-124
 798 0307 84        		.byte	-124
 799 0308 84        		.byte	-124
 800 0309 84        		.byte	-124
 801 030a 84        		.byte	-124
 802 030b 48        		.byte	72
 803 030c 48        		.byte	72
 804 030d 48        		.byte	72
 805 030e 30        		.byte	48
 806 030f 82        		.byte	-126
 807 0310 82        		.byte	-126
 808 0311 82        		.byte	-126
 809 0312 82        		.byte	-126
 810 0313 92        		.byte	-110
 811 0314 92        		.byte	-110
 812 0315 92        		.byte	-110
 813 0316 92        		.byte	-110
 814 0317 6C        		.byte	108
 815 0318 82        		.byte	-126
 816 0319 82        		.byte	-126
 817 031a 44        		.byte	68
 818 031b 28        		.byte	40
 819 031c 10        		.byte	16
 820 031d 28        		.byte	40
 821 031e 44        		.byte	68
 822 031f 82        		.byte	-126
 823 0320 82        		.byte	-126
 824 0321 82        		.byte	-126
 825 0322 82        		.byte	-126
 826 0323 44        		.byte	68
 827 0324 28        		.byte	40
 828 0325 10        		.byte	16
 829 0326 10        		.byte	16
 830 0327 10        		.byte	16
 831 0328 10        		.byte	16
 832 0329 38        		.byte	56
 833 032a FE        		.byte	-2
 834 032b 02        		.byte	2
 835 032c 04        		.byte	4
 836 032d 08        		.byte	8
 837 032e 10        		.byte	16
 838 032f 20        		.byte	32
 839 0330 40        		.byte	64
 840 0331 80        		.byte	-128
 841 0332 FE        		.byte	-2
 842 0333 38        		.byte	56
 843 0334 20        		.byte	32
 844 0335 20        		.byte	32
 845 0336 20        		.byte	32
 846 0337 20        		.byte	32
 847 0338 20        		.byte	32
 848 0339 20        		.byte	32
 849 033a 20        		.byte	32
 850 033b 38        		.byte	56
 851 033c 80        		.byte	-128
 852 033d 80        		.byte	-128
 853 033e 40        		.byte	64
 854 033f 20        		.byte	32
 855 0340 10        		.byte	16
 856 0341 08        		.byte	8
 857 0342 04        		.byte	4
 858 0343 02        		.byte	2
 859 0344 02        		.byte	2
 860 0345 38        		.byte	56
 861 0346 08        		.byte	8
 862 0347 08        		.byte	8
 863 0348 08        		.byte	8
 864 0349 08        		.byte	8
 865 034a 08        		.byte	8
 866 034b 08        		.byte	8
 867 034c 08        		.byte	8
 868 034d 38        		.byte	56
 869 034e 08        		.byte	8
 870 034f 14        		.byte	20
 871 0350 22        		.byte	34
 872 0351 00        		.byte	0
 873 0352 00        		.byte	0
 874 0353 00        		.byte	0
 875 0354 00        		.byte	0
 876 0355 00        		.byte	0
 877 0356 00        		.byte	0
 878 0357 00        		.byte	0
 879 0358 00        		.byte	0
 880 0359 00        		.byte	0
 881 035a 00        		.byte	0
 882 035b 00        		.byte	0
 883 035c 00        		.byte	0
 884 035d 00        		.byte	0
 885 035e 00        		.byte	0
 886 035f FF        		.byte	-1
 887 0360 10        		.byte	16
 888 0361 10        		.byte	16
 889 0362 08        		.byte	8
 890 0363 00        		.byte	0
 891 0364 00        		.byte	0
 892 0365 00        		.byte	0
 893 0366 00        		.byte	0
 894 0367 00        		.byte	0
 895 0368 00        		.byte	0
 896 0369 00        		.byte	0
 897 036a 00        		.byte	0
 898 036b 00        		.byte	0
 899 036c 70        		.byte	112
 900 036d 08        		.byte	8
 901 036e 78        		.byte	120
 902 036f 88        		.byte	-120
 903 0370 88        		.byte	-120
 904 0371 7C        		.byte	124
 905 0372 C0        		.byte	-64
 906 0373 40        		.byte	64
 907 0374 40        		.byte	64
 908 0375 40        		.byte	64
 909 0376 58        		.byte	88
 910 0377 64        		.byte	100
 911 0378 64        		.byte	100
 912 0379 64        		.byte	100
 913 037a 58        		.byte	88
 914 037b 00        		.byte	0
 915 037c 00        		.byte	0
 916 037d 00        		.byte	0
 917 037e 38        		.byte	56
 918 037f 44        		.byte	68
 919 0380 40        		.byte	64
 920 0381 40        		.byte	64
 921 0382 44        		.byte	68
 922 0383 38        		.byte	56
 923 0384 0C        		.byte	12
 924 0385 08        		.byte	8
 925 0386 08        		.byte	8
 926 0387 08        		.byte	8
 927 0388 68        		.byte	104
 928 0389 98        		.byte	-104
 929 038a 98        		.byte	-104
 930 038b 98        		.byte	-104
 931 038c 68        		.byte	104
 932 038d 00        		.byte	0
 933 038e 00        		.byte	0
 934 038f 00        		.byte	0
 935 0390 78        		.byte	120
 936 0391 84        		.byte	-124
 937 0392 84        		.byte	-124
 938 0393 F8        		.byte	-8
 939 0394 80        		.byte	-128
 940 0395 78        		.byte	120
 941 0396 08        		.byte	8
 942 0397 14        		.byte	20
 943 0398 10        		.byte	16
 944 0399 10        		.byte	16
 945 039a 38        		.byte	56
 946 039b 10        		.byte	16
 947 039c 10        		.byte	16
 948 039d 10        		.byte	16
 949 039e 38        		.byte	56
 950 039f 00        		.byte	0
 951 03a0 00        		.byte	0
 952 03a1 00        		.byte	0
 953 03a2 74        		.byte	116
 954 03a3 88        		.byte	-120
 955 03a4 88        		.byte	-120
 956 03a5 78        		.byte	120
 957 03a6 08        		.byte	8
 958 03a7 F0        		.byte	-16
 959 03a8 C0        		.byte	-64
 960 03a9 40        		.byte	64
 961 03aa 40        		.byte	64
 962 03ab 58        		.byte	88
 963 03ac 64        		.byte	100
 964 03ad 44        		.byte	68
 965 03ae 44        		.byte	68
 966 03af 44        		.byte	68
 967 03b0 C4        		.byte	-60
 968 03b1 00        		.byte	0
 969 03b2 10        		.byte	16
 970 03b3 00        		.byte	0
 971 03b4 30        		.byte	48
 972 03b5 10        		.byte	16
 973 03b6 10        		.byte	16
 974 03b7 10        		.byte	16
 975 03b8 10        		.byte	16
 976 03b9 38        		.byte	56
 977 03ba 00        		.byte	0
 978 03bb 08        		.byte	8
 979 03bc 00        		.byte	0
 980 03bd 18        		.byte	24
 981 03be 08        		.byte	8
 982 03bf 08        		.byte	8
 983 03c0 08        		.byte	8
 984 03c1 28        		.byte	40
 985 03c2 18        		.byte	24
 986 03c3 60        		.byte	96
 987 03c4 20        		.byte	32
 988 03c5 20        		.byte	32
 989 03c6 24        		.byte	36
 990 03c7 28        		.byte	40
 991 03c8 30        		.byte	48
 992 03c9 28        		.byte	40
 993 03ca 24        		.byte	36
 994 03cb 24        		.byte	36
 995 03cc 30        		.byte	48
 996 03cd 10        		.byte	16
 997 03ce 10        		.byte	16
 998 03cf 10        		.byte	16
 999 03d0 10        		.byte	16
 1000 03d1 10        		.byte	16
 1001 03d2 10        		.byte	16
 1002 03d3 10        		.byte	16
 1003 03d4 38        		.byte	56
 1004 03d5 00        		.byte	0
 1005 03d6 00        		.byte	0
 1006 03d7 00        		.byte	0
 1007 03d8 EC        		.byte	-20
 1008 03d9 92        		.byte	-110
 1009 03da 92        		.byte	-110
 1010 03db 92        		.byte	-110
 1011 03dc 92        		.byte	-110
 1012 03dd 92        		.byte	-110
 1013 03de 00        		.byte	0
 1014 03df 00        		.byte	0
 1015 03e0 00        		.byte	0
 1016 03e1 58        		.byte	88
 1017 03e2 64        		.byte	100
 1018 03e3 44        		.byte	68
 1019 03e4 44        		.byte	68
 1020 03e5 44        		.byte	68
 1021 03e6 44        		.byte	68
 1022 03e7 00        		.byte	0
 1023 03e8 00        		.byte	0
 1024 03e9 00        		.byte	0
 1025 03ea 38        		.byte	56
 1026 03eb 44        		.byte	68
 1027 03ec 44        		.byte	68
 1028 03ed 44        		.byte	68
 1029 03ee 44        		.byte	68
 1030 03ef 38        		.byte	56
 1031 03f0 00        		.byte	0
 1032 03f1 00        		.byte	0
 1033 03f2 00        		.byte	0
 1034 03f3 F8        		.byte	-8
 1035 03f4 44        		.byte	68
 1036 03f5 44        		.byte	68
 1037 03f6 78        		.byte	120
 1038 03f7 40        		.byte	64
 1039 03f8 E0        		.byte	-32
 1040 03f9 00        		.byte	0
 1041 03fa 00        		.byte	0
 1042 03fb 00        		.byte	0
 1043 03fc 68        		.byte	104
 1044 03fd 98        		.byte	-104
 1045 03fe 98        		.byte	-104
 1046 03ff 68        		.byte	104
 1047 0400 08        		.byte	8
 1048 0401 1C        		.byte	28
 1049 0402 00        		.byte	0
 1050 0403 00        		.byte	0
 1051 0404 00        		.byte	0
 1052 0405 98        		.byte	-104
 1053 0406 64        		.byte	100
 1054 0407 40        		.byte	64
 1055 0408 40        		.byte	64
 1056 0409 40        		.byte	64
 1057 040a E0        		.byte	-32
 1058 040b 00        		.byte	0
 1059 040c 00        		.byte	0
 1060 040d 00        		.byte	0
 1061 040e 3C        		.byte	60
 1062 040f 40        		.byte	64
 1063 0410 38        		.byte	56
 1064 0411 04        		.byte	4
 1065 0412 04        		.byte	4
 1066 0413 78        		.byte	120
 1067 0414 10        		.byte	16
 1068 0415 10        		.byte	16
 1069 0416 10        		.byte	16
 1070 0417 38        		.byte	56
 1071 0418 10        		.byte	16
 1072 0419 10        		.byte	16
 1073 041a 10        		.byte	16
 1074 041b 14        		.byte	20
 1075 041c 08        		.byte	8
 1076 041d 00        		.byte	0
 1077 041e 00        		.byte	0
 1078 041f 00        		.byte	0
 1079 0420 44        		.byte	68
 1080 0421 44        		.byte	68
 1081 0422 44        		.byte	68
 1082 0423 44        		.byte	68
 1083 0424 4C        		.byte	76
 1084 0425 34        		.byte	52
 1085 0426 00        		.byte	0
 1086 0427 00        		.byte	0
 1087 0428 00        		.byte	0
 1088 0429 44        		.byte	68
 1089 042a 44        		.byte	68
 1090 042b 44        		.byte	68
 1091 042c 44        		.byte	68
 1092 042d 28        		.byte	40
 1093 042e 10        		.byte	16
 1094 042f 00        		.byte	0
 1095 0430 00        		.byte	0
 1096 0431 00        		.byte	0
 1097 0432 82        		.byte	-126
 1098 0433 82        		.byte	-126
 1099 0434 92        		.byte	-110
 1100 0435 92        		.byte	-110
 1101 0436 92        		.byte	-110
 1102 0437 6C        		.byte	108
 1103 0438 00        		.byte	0
 1104 0439 00        		.byte	0
 1105 043a 00        		.byte	0
 1106 043b 84        		.byte	-124
 1107 043c 48        		.byte	72
 1108 043d 30        		.byte	48
 1109 043e 30        		.byte	48
 1110 043f 48        		.byte	72
 1111 0440 84        		.byte	-124
 1112 0441 00        		.byte	0
 1113 0442 00        		.byte	0
 1114 0443 00        		.byte	0
 1115 0444 44        		.byte	68
 1116 0445 44        		.byte	68
 1117 0446 44        		.byte	68
 1118 0447 3C        		.byte	60
 1119 0448 04        		.byte	4
 1120 0449 78        		.byte	120
 1121 044a 00        		.byte	0
 1122 044b 00        		.byte	0
 1123 044c 00        		.byte	0
 1124 044d FC        		.byte	-4
 1125 044e 08        		.byte	8
 1126 044f 10        		.byte	16
 1127 0450 20        		.byte	32
 1128 0451 40        		.byte	64
 1129 0452 FC        		.byte	-4
 1130 0453 0C        		.byte	12
 1131 0454 10        		.byte	16
 1132 0455 10        		.byte	16
 1133 0456 10        		.byte	16
 1134 0457 60        		.byte	96
 1135 0458 10        		.byte	16
 1136 0459 10        		.byte	16
 1137 045a 10        		.byte	16
 1138 045b 0C        		.byte	12
 1139 045c 10        		.byte	16
 1140 045d 10        		.byte	16
 1141 045e 10        		.byte	16
 1142 045f 10        		.byte	16
 1143 0460 10        		.byte	16
 1144 0461 10        		.byte	16
 1145 0462 10        		.byte	16
 1146 0463 10        		.byte	16
 1147 0464 10        		.byte	16
 1148 0465 60        		.byte	96
 1149 0466 10        		.byte	16
 1150 0467 10        		.byte	16
 1151 0468 10        		.byte	16
 1152 0469 0C        		.byte	12
 1153 046a 10        		.byte	16
 1154 046b 10        		.byte	16
 1155 046c 10        		.byte	16
 1156 046d 60        		.byte	96
 1157 046e 64        		.byte	100
 1158 046f 98        		.byte	-104
 1159 0470 00        		.byte	0
 1160 0471 00        		.byte	0
 1161 0472 00        		.byte	0
 1162 0473 00        		.byte	0
 1163 0474 00        		.byte	0
 1164 0475 00        		.byte	0
 1165 0476 00        		.byte	0
 1166 0477 00        		.byte	0
 1167 0478 00        		.byte	0
 1168 0479 00        		.byte	0
 1169 047a 00        		.byte	0
 1170 047b 00        		.byte	0
 1171 047c 00        		.byte	0
 1172 047d 00        		.byte	0
 1173 047e 00        		.byte	0
 1174 047f 00        		.byte	0
 1175 0480 1C        		.byte	28
 1176 0481 22        		.byte	34
 1177 0482 40        		.byte	64
 1178 0483 F0        		.byte	-16
 1179 0484 40        		.byte	64
 1180 0485 F0        		.byte	-16
 1181 0486 40        		.byte	64
 1182 0487 22        		.byte	34
 1183 0488 1C        		.byte	28
 1184 0489 00        		.byte	0
 1185 048a 00        		.byte	0
 1186 048b 00        		.byte	0
 1187 048c 00        		.byte	0
 1188 048d 00        		.byte	0
 1189 048e 00        		.byte	0
 1190 048f 00        		.byte	0
 1191 0490 00        		.byte	0
 1192 0491 00        		.byte	0
 1193 0492 00        		.byte	0
 1194 0493 00        		.byte	0
 1195 0494 00        		.byte	0
 1196 0495 00        		.byte	0
 1197 0496 00        		.byte	0
 1198 0497 00        		.byte	0
 1199 0498 00        		.byte	0
 1200 0499 10        		.byte	16
 1201 049a 20        		.byte	32
 1202 049b 08        		.byte	8
 1203 049c 14        		.byte	20
 1204 049d 10        		.byte	16
 1205 049e 38        		.byte	56
 1206 049f 10        		.byte	16
 1207 04a0 10        		.byte	16
 1208 04a1 10        		.byte	16
 1209 04a2 50        		.byte	80
 1210 04a3 20        		.byte	32
 1211 04a4 00        		.byte	0
 1212 04a5 00        		.byte	0
 1213 04a6 00        		.byte	0
 1214 04a7 00        		.byte	0
 1215 04a8 00        		.byte	0
 1216 04a9 00        		.byte	0
 1217 04aa 24        		.byte	36
 1218 04ab 24        		.byte	36
 1219 04ac 48        		.byte	72
 1220 04ad 00        		.byte	0
 1221 04ae 00        		.byte	0
 1222 04af 00        		.byte	0
 1223 04b0 00        		.byte	0
 1224 04b1 00        		.byte	0
 1225 04b2 00        		.byte	0
 1226 04b3 00        		.byte	0
 1227 04b4 00        		.byte	0
 1228 04b5 54        		.byte	84
 1229 04b6 10        		.byte	16
 1230 04b7 10        		.byte	16
 1231 04b8 7C        		.byte	124
 1232 04b9 10        		.byte	16
 1233 04ba 10        		.byte	16
 1234 04bb 10        		.byte	16
 1235 04bc 10        		.byte	16
 1236 04bd 10        		.byte	16
 1237 04be 10        		.byte	16
 1238 04bf 10        		.byte	16
 1239 04c0 10        		.byte	16
 1240 04c1 7C        		.byte	124
 1241 04c2 10        		.byte	16
 1242 04c3 10        		.byte	16
 1243 04c4 7C        		.byte	124
 1244 04c5 10        		.byte	16
 1245 04c6 10        		.byte	16
 1246 04c7 10        		.byte	16
 1247 04c8 10        		.byte	16
 1248 04c9 28        		.byte	40
 1249 04ca 00        		.byte	0
 1250 04cb 00        		.byte	0
 1251 04cc 00        		.byte	0
 1252 04cd 00        		.byte	0
 1253 04ce 00        		.byte	0
 1254 04cf 00        		.byte	0
 1255 04d0 00        		.byte	0
 1256 04d1 C2        		.byte	-62
 1257 04d2 C2        		.byte	-62
 1258 04d3 04        		.byte	4
 1259 04d4 08        		.byte	8
 1260 04d5 10        		.byte	16
 1261 04d6 20        		.byte	32
 1262 04d7 40        		.byte	64
 1263 04d8 B2        		.byte	-78
 1264 04d9 B2        		.byte	-78
 1265 04da 28        		.byte	40
 1266 04db 10        		.byte	16
 1267 04dc 3C        		.byte	60
 1268 04dd 42        		.byte	66
 1269 04de 80        		.byte	-128
 1270 04df 7C        		.byte	124
 1271 04e0 02        		.byte	2
 1272 04e1 02        		.byte	2
 1273 04e2 7C        		.byte	124
 1274 04e3 00        		.byte	0
 1275 04e4 00        		.byte	0
 1276 04e5 00        		.byte	0
 1277 04e6 08        		.byte	8
 1278 04e7 10        		.byte	16
 1279 04e8 08        		.byte	8
 1280 04e9 00        		.byte	0
 1281 04ea 00        		.byte	0
 1282 04eb 00        		.byte	0
 1283 04ec 7E        		.byte	126
 1284 04ed 90        		.byte	-112
 1285 04ee 90        		.byte	-112
 1286 04ef 90        		.byte	-112
 1287 04f0 9E        		.byte	-98
 1288 04f1 90        		.byte	-112
 1289 04f2 90        		.byte	-112
 1290 04f3 90        		.byte	-112
 1291 04f4 7E        		.byte	126
 1292 04f5 00        		.byte	0
 1293 04f6 00        		.byte	0
 1294 04f7 00        		.byte	0
 1295 04f8 00        		.byte	0
 1296 04f9 00        		.byte	0
 1297 04fa 00        		.byte	0
 1298 04fb 00        		.byte	0
 1299 04fc 00        		.byte	0
 1300 04fd 00        		.byte	0
 1301 04fe 28        		.byte	40
 1302 04ff 10        		.byte	16
 1303 0500 FE        		.byte	-2
 1304 0501 04        		.byte	4
 1305 0502 08        		.byte	8
 1306 0503 10        		.byte	16
 1307 0504 20        		.byte	32
 1308 0505 40        		.byte	64
 1309 0506 FE        		.byte	-2
 1310 0507 00        		.byte	0
 1311 0508 00        		.byte	0
 1312 0509 00        		.byte	0
 1313 050a 00        		.byte	0
 1314 050b 00        		.byte	0
 1315 050c 00        		.byte	0
 1316 050d 00        		.byte	0
 1317 050e 00        		.byte	0
 1318 050f 00        		.byte	0
 1319 0510 00        		.byte	0
 1320 0511 00        		.byte	0
 1321 0512 00        		.byte	0
 1322 0513 00        		.byte	0
 1323 0514 00        		.byte	0
 1324 0515 00        		.byte	0
 1325 0516 00        		.byte	0
 1326 0517 00        		.byte	0
 1327 0518 00        		.byte	0
 1328 0519 20        		.byte	32
 1329 051a 10        		.byte	16
 1330 051b 00        		.byte	0
 1331 051c 00        		.byte	0
 1332 051d 00        		.byte	0
 1333 051e 00        		.byte	0
 1334 051f 00        		.byte	0
 1335 0520 00        		.byte	0
 1336 0521 00        		.byte	0
 1337 0522 10        		.byte	16
 1338 0523 20        		.byte	32
 1339 0524 00        		.byte	0
 1340 0525 00        		.byte	0
 1341 0526 00        		.byte	0
 1342 0527 00        		.byte	0
 1343 0528 00        		.byte	0
 1344 0529 00        		.byte	0
 1345 052a 00        		.byte	0
 1346 052b 24        		.byte	36
 1347 052c 48        		.byte	72
 1348 052d 48        		.byte	72
 1349 052e 00        		.byte	0
 1350 052f 00        		.byte	0
 1351 0530 00        		.byte	0
 1352 0531 00        		.byte	0
 1353 0532 00        		.byte	0
 1354 0533 00        		.byte	0
 1355 0534 24        		.byte	36
 1356 0535 24        		.byte	36
 1357 0536 48        		.byte	72
 1358 0537 00        		.byte	0
 1359 0538 00        		.byte	0
 1360 0539 00        		.byte	0
 1361 053a 00        		.byte	0
 1362 053b 00        		.byte	0
 1363 053c 00        		.byte	0
 1364 053d 00        		.byte	0
 1365 053e 00        		.byte	0
 1366 053f 00        		.byte	0
 1367 0540 00        		.byte	0
 1368 0541 00        		.byte	0
 1369 0542 00        		.byte	0
 1370 0543 00        		.byte	0
 1371 0544 18        		.byte	24
 1372 0545 18        		.byte	24
 1373 0546 00        		.byte	0
 1374 0547 00        		.byte	0
 1375 0548 00        		.byte	0
 1376 0549 00        		.byte	0
 1377 054a 38        		.byte	56
 1378 054b 00        		.byte	0
 1379 054c 00        		.byte	0
 1380 054d 00        		.byte	0
 1381 054e 00        		.byte	0
 1382 054f 00        		.byte	0
 1383 0550 00        		.byte	0
 1384 0551 00        		.byte	0
 1385 0552 00        		.byte	0
 1386 0553 7E        		.byte	126
 1387 0554 00        		.byte	0
 1388 0555 00        		.byte	0
 1389 0556 00        		.byte	0
 1390 0557 00        		.byte	0
 1391 0558 28        		.byte	40
 1392 0559 50        		.byte	80
 1393 055a 00        		.byte	0
 1394 055b 00        		.byte	0
 1395 055c 00        		.byte	0
 1396 055d 00        		.byte	0
 1397 055e 00        		.byte	0
 1398 055f 00        		.byte	0
 1399 0560 00        		.byte	0
 1400 0561 F2        		.byte	-14
 1401 0562 5E        		.byte	94
 1402 0563 52        		.byte	82
 1403 0564 52        		.byte	82
 1404 0565 52        		.byte	82
 1405 0566 00        		.byte	0
 1406 0567 00        		.byte	0
 1407 0568 00        		.byte	0
 1408 0569 00        		.byte	0
 1409 056a 28        		.byte	40
 1410 056b 10        		.byte	16
 1411 056c 7C        		.byte	124
 1412 056d 82        		.byte	-126
 1413 056e 80        		.byte	-128
 1414 056f 7C        		.byte	124
 1415 0570 02        		.byte	2
 1416 0571 02        		.byte	2
 1417 0572 7C        		.byte	124
 1418 0573 00        		.byte	0
 1419 0574 00        		.byte	0
 1420 0575 00        		.byte	0
 1421 0576 10        		.byte	16
 1422 0577 08        		.byte	8
 1423 0578 10        		.byte	16
 1424 0579 00        		.byte	0
 1425 057a 00        		.byte	0
 1426 057b 00        		.byte	0
 1427 057c 00        		.byte	0
 1428 057d 00        		.byte	0
 1429 057e 00        		.byte	0
 1430 057f 6C        		.byte	108
 1431 0580 92        		.byte	-110
 1432 0581 92        		.byte	-110
 1433 0582 9C        		.byte	-100
 1434 0583 90        		.byte	-112
 1435 0584 6E        		.byte	110
 1436 0585 00        		.byte	0
 1437 0586 00        		.byte	0
 1438 0587 00        		.byte	0
 1439 0588 00        		.byte	0
 1440 0589 00        		.byte	0
 1441 058a 00        		.byte	0
 1442 058b 00        		.byte	0
 1443 058c 00        		.byte	0
 1444 058d 00        		.byte	0
 1445 058e 28        		.byte	40
 1446 058f 10        		.byte	16
 1447 0590 00        		.byte	0
 1448 0591 7C        		.byte	124
 1449 0592 08        		.byte	8
 1450 0593 10        		.byte	16
 1451 0594 20        		.byte	32
 1452 0595 40        		.byte	64
 1453 0596 FC        		.byte	-4
 1454 0597 AA        		.byte	-86
 1455 0598 82        		.byte	-126
 1456 0599 44        		.byte	68
 1457 059a 28        		.byte	40
 1458 059b 10        		.byte	16
 1459 059c 10        		.byte	16
 1460 059d 10        		.byte	16
 1461 059e 10        		.byte	16
 1462 059f 10        		.byte	16
 1463 05a0 00        		.byte	0
 1464 05a1 00        		.byte	0
 1465 05a2 00        		.byte	0
 1466 05a3 00        		.byte	0
 1467 05a4 00        		.byte	0
 1468 05a5 00        		.byte	0
 1469 05a6 00        		.byte	0
 1470 05a7 00        		.byte	0
 1471 05a8 00        		.byte	0
 1472 05a9 10        		.byte	16
 1473 05aa 00        		.byte	0
 1474 05ab 10        		.byte	16
 1475 05ac 10        		.byte	16
 1476 05ad 10        		.byte	16
 1477 05ae 10        		.byte	16
 1478 05af 10        		.byte	16
 1479 05b0 10        		.byte	16
 1480 05b1 10        		.byte	16
 1481 05b2 00        		.byte	0
 1482 05b3 00        		.byte	0
 1483 05b4 02        		.byte	2
 1484 05b5 3C        		.byte	60
 1485 05b6 4A        		.byte	74
 1486 05b7 50        		.byte	80
 1487 05b8 60        		.byte	96
 1488 05b9 44        		.byte	68
 1489 05ba B8        		.byte	-72
 1490 05bb 0C        		.byte	12
 1491 05bc 12        		.byte	18
 1492 05bd 20        		.byte	32
 1493 05be 20        		.byte	32
 1494 05bf 78        		.byte	120
 1495 05c0 20        		.byte	32
 1496 05c1 20        		.byte	32
 1497 05c2 20        		.byte	32
 1498 05c3 3E        		.byte	62
 1499 05c4 00        		.byte	0
 1500 05c5 00        		.byte	0
 1501 05c6 44        		.byte	68
 1502 05c7 38        		.byte	56
 1503 05c8 28        		.byte	40
 1504 05c9 38        		.byte	56
 1505 05ca 44        		.byte	68
 1506 05cb 00        		.byte	0
 1507 05cc 00        		.byte	0
 1508 05cd 82        		.byte	-126
 1509 05ce 44        		.byte	68
 1510 05cf 28        		.byte	40
 1511 05d0 10        		.byte	16
 1512 05d1 10        		.byte	16
 1513 05d2 7C        		.byte	124
 1514 05d3 10        		.byte	16
 1515 05d4 7C        		.byte	124
 1516 05d5 10        		.byte	16
 1517 05d6 00        		.byte	0
 1518 05d7 20        		.byte	32
 1519 05d8 20        		.byte	32
 1520 05d9 20        		.byte	32
 1521 05da 00        		.byte	0
 1522 05db 20        		.byte	32
 1523 05dc 20        		.byte	32
 1524 05dd 20        		.byte	32
 1525 05de 00        		.byte	0
 1526 05df 38        		.byte	56
 1527 05e0 44        		.byte	68
 1528 05e1 20        		.byte	32
 1529 05e2 58        		.byte	88
 1530 05e3 24        		.byte	36
 1531 05e4 1C        		.byte	28
 1532 05e5 02        		.byte	2
 1533 05e6 04        		.byte	4
 1534 05e7 78        		.byte	120
 1535 05e8 28        		.byte	40
 1536 05e9 00        		.byte	0
 1537 05ea 00        		.byte	0
 1538 05eb 00        		.byte	0
 1539 05ec 00        		.byte	0
 1540 05ed 00        		.byte	0
 1541 05ee 00        		.byte	0
 1542 05ef 00        		.byte	0
 1543 05f0 00        		.byte	0
 1544 05f1 38        		.byte	56
 1545 05f2 44        		.byte	68
 1546 05f3 92        		.byte	-110
 1547 05f4 AA        		.byte	-86
 1548 05f5 A2        		.byte	-94
 1549 05f6 AA        		.byte	-86
 1550 05f7 92        		.byte	-110
 1551 05f8 44        		.byte	68
 1552 05f9 38        		.byte	56
 1553 05fa 38        		.byte	56
 1554 05fb 04        		.byte	4
 1555 05fc 3C        		.byte	60
 1556 05fd 24        		.byte	36
 1557 05fe 3C        		.byte	60
 1558 05ff 00        		.byte	0
 1559 0600 00        		.byte	0
 1560 0601 00        		.byte	0
 1561 0602 00        		.byte	0
 1562 0603 00        		.byte	0
 1563 0604 00        		.byte	0
 1564 0605 00        		.byte	0
 1565 0606 28        		.byte	40
 1566 0607 50        		.byte	80
 1567 0608 28        		.byte	40
 1568 0609 00        		.byte	0
 1569 060a 00        		.byte	0
 1570 060b 00        		.byte	0
 1571 060c 00        		.byte	0
 1572 060d 3C        		.byte	60
 1573 060e 04        		.byte	4
 1574 060f 00        		.byte	0
 1575 0610 00        		.byte	0
 1576 0611 00        		.byte	0
 1577 0612 00        		.byte	0
 1578 0613 00        		.byte	0
 1579 0614 00        		.byte	0
 1580 0615 00        		.byte	0
 1581 0616 00        		.byte	0
 1582 0617 00        		.byte	0
 1583 0618 00        		.byte	0
 1584 0619 00        		.byte	0
 1585 061a 00        		.byte	0
 1586 061b 00        		.byte	0
 1587 061c 00        		.byte	0
 1588 061d 00        		.byte	0
 1589 061e 38        		.byte	56
 1590 061f 44        		.byte	68
 1591 0620 B2        		.byte	-78
 1592 0621 AA        		.byte	-86
 1593 0622 B2        		.byte	-78
 1594 0623 AA        		.byte	-86
 1595 0624 AA        		.byte	-86
 1596 0625 44        		.byte	68
 1597 0626 38        		.byte	56
 1598 0627 FE        		.byte	-2
 1599 0628 00        		.byte	0
 1600 0629 00        		.byte	0
 1601 062a 00        		.byte	0
 1602 062b 00        		.byte	0
 1603 062c 00        		.byte	0
 1604 062d 00        		.byte	0
 1605 062e 00        		.byte	0
 1606 062f 00        		.byte	0
 1607 0630 10        		.byte	16
 1608 0631 28        		.byte	40
 1609 0632 10        		.byte	16
 1610 0633 00        		.byte	0
 1611 0634 00        		.byte	0
 1612 0635 00        		.byte	0
 1613 0636 00        		.byte	0
 1614 0637 00        		.byte	0
 1615 0638 00        		.byte	0
 1616 0639 00        		.byte	0
 1617 063a 00        		.byte	0
 1618 063b 00        		.byte	0
 1619 063c 00        		.byte	0
 1620 063d 10        		.byte	16
 1621 063e 10        		.byte	16
 1622 063f 38        		.byte	56
 1623 0640 10        		.byte	16
 1624 0641 38        		.byte	56
 1625 0642 18        		.byte	24
 1626 0643 24        		.byte	36
 1627 0644 08        		.byte	8
 1628 0645 10        		.byte	16
 1629 0646 3C        		.byte	60
 1630 0647 00        		.byte	0
 1631 0648 00        		.byte	0
 1632 0649 00        		.byte	0
 1633 064a 00        		.byte	0
 1634 064b 38        		.byte	56
 1635 064c 08        		.byte	8
 1636 064d 30        		.byte	48
 1637 064e 08        		.byte	8
 1638 064f 38        		.byte	56
 1639 0650 00        		.byte	0
 1640 0651 00        		.byte	0
 1641 0652 00        		.byte	0
 1642 0653 00        		.byte	0
 1643 0654 10        		.byte	16
 1644 0655 10        		.byte	16
 1645 0656 00        		.byte	0
 1646 0657 00        		.byte	0
 1647 0658 00        		.byte	0
 1648 0659 00        		.byte	0
 1649 065a 00        		.byte	0
 1650 065b 00        		.byte	0
 1651 065c 00        		.byte	0
 1652 065d 00        		.byte	0
 1653 065e 00        		.byte	0
 1654 065f 00        		.byte	0
 1655 0660 00        		.byte	0
 1656 0661 00        		.byte	0
 1657 0662 50        		.byte	80
 1658 0663 50        		.byte	80
 1659 0664 70        		.byte	112
 1660 0665 40        		.byte	64
 1661 0666 7C        		.byte	124
 1662 0667 A8        		.byte	-88
 1663 0668 68        		.byte	104
 1664 0669 28        		.byte	40
 1665 066a 28        		.byte	40
 1666 066b 28        		.byte	40
 1667 066c 28        		.byte	40
 1668 066d 28        		.byte	40
 1669 066e 28        		.byte	40
 1670 066f 00        		.byte	0
 1671 0670 00        		.byte	0
 1672 0671 00        		.byte	0
 1673 0672 00        		.byte	0
 1674 0673 10        		.byte	16
 1675 0674 00        		.byte	0
 1676 0675 00        		.byte	0
 1677 0676 00        		.byte	0
 1678 0677 00        		.byte	0
 1679 0678 00        		.byte	0
 1680 0679 00        		.byte	0
 1681 067a 00        		.byte	0
 1682 067b 00        		.byte	0
 1683 067c 00        		.byte	0
 1684 067d 00        		.byte	0
 1685 067e 00        		.byte	0
 1686 067f 00        		.byte	0
 1687 0680 10        		.byte	16
 1688 0681 10        		.byte	16
 1689 0682 10        		.byte	16
 1690 0683 10        		.byte	16
 1691 0684 00        		.byte	0
 1692 0685 00        		.byte	0
 1693 0686 00        		.byte	0
 1694 0687 00        		.byte	0
 1695 0688 00        		.byte	0
 1696 0689 00        		.byte	0
 1697 068a 1C        		.byte	28
 1698 068b 14        		.byte	20
 1699 068c 1C        		.byte	28
 1700 068d 00        		.byte	0
 1701 068e 00        		.byte	0
 1702 068f 00        		.byte	0
 1703 0690 00        		.byte	0
 1704 0691 00        		.byte	0
 1705 0692 00        		.byte	0
 1706 0693 00        		.byte	0
 1707 0694 00        		.byte	0
 1708 0695 00        		.byte	0
 1709 0696 00        		.byte	0
 1710 0697 00        		.byte	0
 1711 0698 00        		.byte	0
 1712 0699 48        		.byte	72
 1713 069a 24        		.byte	36
 1714 069b 48        		.byte	72
 1715 069c 44        		.byte	68
 1716 069d 48        		.byte	72
 1717 069e 50        		.byte	80
 1718 069f 20        		.byte	32
 1719 06a0 48        		.byte	72
 1720 06a1 98        		.byte	-104
 1721 06a2 28        		.byte	40
 1722 06a3 78        		.byte	120
 1723 06a4 08        		.byte	8
 1724 06a5 44        		.byte	68
 1725 06a6 48        		.byte	72
 1726 06a7 50        		.byte	80
 1727 06a8 20        		.byte	32
 1728 06a9 5C        		.byte	92
 1729 06aa 94        		.byte	-108
 1730 06ab 08        		.byte	8
 1731 06ac 10        		.byte	16
 1732 06ad 3C        		.byte	60
 1733 06ae C2        		.byte	-62
 1734 06af 24        		.byte	36
 1735 06b0 C4        		.byte	-60
 1736 06b1 28        		.byte	40
 1737 06b2 D4        		.byte	-44
 1738 06b3 2C        		.byte	44
 1739 06b4 54        		.byte	84
 1740 06b5 BE        		.byte	-66
 1741 06b6 84        		.byte	-124
 1742 06b7 00        		.byte	0
 1743 06b8 00        		.byte	0
 1744 06b9 00        		.byte	0
 1745 06ba 10        		.byte	16
 1746 06bb 00        		.byte	0
 1747 06bc 10        		.byte	16
 1748 06bd 10        		.byte	16
 1749 06be 48        		.byte	72
 1750 06bf 30        		.byte	48
 1751 06c0 20        		.byte	32
 1752 06c1 10        		.byte	16
 1753 06c2 00        		.byte	0
 1754 06c3 10        		.byte	16
 1755 06c4 28        		.byte	40
 1756 06c5 44        		.byte	68
 1757 06c6 7C        		.byte	124
 1758 06c7 44        		.byte	68
 1759 06c8 42        		.byte	66
 1760 06c9 08        		.byte	8
 1761 06ca 10        		.byte	16
 1762 06cb 00        		.byte	0
 1763 06cc 10        		.byte	16
 1764 06cd 28        		.byte	40
 1765 06ce 44        		.byte	68
 1766 06cf 7C        		.byte	124
 1767 06d0 44        		.byte	68
 1768 06d1 44        		.byte	68
 1769 06d2 10        		.byte	16
 1770 06d3 28        		.byte	40
 1771 06d4 00        		.byte	0
 1772 06d5 10        		.byte	16
 1773 06d6 28        		.byte	40
 1774 06d7 44        		.byte	68
 1775 06d8 7C        		.byte	124
 1776 06d9 44        		.byte	68
 1777 06da 44        		.byte	68
 1778 06db 32        		.byte	50
 1779 06dc CC        		.byte	-52
 1780 06dd 00        		.byte	0
 1781 06de 10        		.byte	16
 1782 06df 28        		.byte	40
 1783 06e0 44        		.byte	68
 1784 06e1 7C        		.byte	124
 1785 06e2 44        		.byte	68
 1786 06e3 44        		.byte	68
 1787 06e4 00        		.byte	0
 1788 06e5 28        		.byte	40
 1789 06e6 00        		.byte	0
 1790 06e7 10        		.byte	16
 1791 06e8 28        		.byte	40
 1792 06e9 44        		.byte	68
 1793 06ea 7C        		.byte	124
 1794 06eb 44        		.byte	68
 1795 06ec 44        		.byte	68
 1796 06ed 00        		.byte	0
 1797 06ee 10        		.byte	16
 1798 06ef 00        		.byte	0
 1799 06f0 10        		.byte	16
 1800 06f1 28        		.byte	40
 1801 06f2 44        		.byte	68
 1802 06f3 7C        		.byte	124
 1803 06f4 44        		.byte	68
 1804 06f5 44        		.byte	68
 1805 06f6 00        		.byte	0
 1806 06f7 00        		.byte	0
 1807 06f8 00        		.byte	0
 1808 06f9 3E        		.byte	62
 1809 06fa 48        		.byte	72
 1810 06fb 7E        		.byte	126
 1811 06fc 88        		.byte	-120
 1812 06fd 88        		.byte	-120
 1813 06fe 8E        		.byte	-114
 1814 06ff 38        		.byte	56
 1815 0700 44        		.byte	68
 1816 0701 80        		.byte	-128
 1817 0702 80        		.byte	-128
 1818 0703 80        		.byte	-128
 1819 0704 80        		.byte	-128
 1820 0705 44        		.byte	68
 1821 0706 38        		.byte	56
 1822 0707 10        		.byte	16
 1823 0708 20        		.byte	32
 1824 0709 10        		.byte	16
 1825 070a 00        		.byte	0
 1826 070b 7C        		.byte	124
 1827 070c 40        		.byte	64
 1828 070d 78        		.byte	120
 1829 070e 40        		.byte	64
 1830 070f 40        		.byte	64
 1831 0710 78        		.byte	120
 1832 0711 10        		.byte	16
 1833 0712 20        		.byte	32
 1834 0713 00        		.byte	0
 1835 0714 7C        		.byte	124
 1836 0715 40        		.byte	64
 1837 0716 78        		.byte	120
 1838 0717 40        		.byte	64
 1839 0718 40        		.byte	64
 1840 0719 7C        		.byte	124
 1841 071a 10        		.byte	16
 1842 071b 28        		.byte	40
 1843 071c 00        		.byte	0
 1844 071d 7C        		.byte	124
 1845 071e 40        		.byte	64
 1846 071f 78        		.byte	120
 1847 0720 40        		.byte	64
 1848 0721 40        		.byte	64
 1849 0722 7C        		.byte	124
 1850 0723 00        		.byte	0
 1851 0724 28        		.byte	40
 1852 0725 00        		.byte	0
 1853 0726 7C        		.byte	124
 1854 0727 40        		.byte	64
 1855 0728 78        		.byte	120
 1856 0729 40        		.byte	64
 1857 072a 40        		.byte	64
 1858 072b 7C        		.byte	124
 1859 072c 20        		.byte	32
 1860 072d 10        		.byte	16
 1861 072e 00        		.byte	0
 1862 072f 10        		.byte	16
 1863 0730 10        		.byte	16
 1864 0731 10        		.byte	16
 1865 0732 10        		.byte	16
 1866 0733 10        		.byte	16
 1867 0734 10        		.byte	16
 1868 0735 08        		.byte	8
 1869 0736 10        		.byte	16
 1870 0737 00        		.byte	0
 1871 0738 10        		.byte	16
 1872 0739 10        		.byte	16
 1873 073a 10        		.byte	16
 1874 073b 10        		.byte	16
 1875 073c 10        		.byte	16
 1876 073d 10        		.byte	16
 1877 073e 10        		.byte	16
 1878 073f 28        		.byte	40
 1879 0740 00        		.byte	0
 1880 0741 10        		.byte	16
 1881 0742 10        		.byte	16
 1882 0743 10        		.byte	16
 1883 0744 10        		.byte	16
 1884 0745 10        		.byte	16
 1885 0746 10        		.byte	16
 1886 0747 00        		.byte	0
 1887 0748 28        		.byte	40
 1888 0749 00        		.byte	0
 1889 074a 10        		.byte	16
 1890 074b 10        		.byte	16
 1891 074c 10        		.byte	16
 1892 074d 10        		.byte	16
 1893 074e 10        		.byte	16
 1894 074f 10        		.byte	16
 1895 0750 00        		.byte	0
 1896 0751 00        		.byte	0
 1897 0752 00        		.byte	0
 1898 0753 78        		.byte	120
 1899 0754 44        		.byte	68
 1900 0755 E2        		.byte	-30
 1901 0756 42        		.byte	66
 1902 0757 44        		.byte	68
 1903 0758 78        		.byte	120
 1904 0759 32        		.byte	50
 1905 075a CC        		.byte	-52
 1906 075b 00        		.byte	0
 1907 075c 42        		.byte	66
 1908 075d 62        		.byte	98
 1909 075e 52        		.byte	82
 1910 075f 4A        		.byte	74
 1911 0760 46        		.byte	70
 1912 0761 42        		.byte	66
 1913 0762 20        		.byte	32
 1914 0763 10        		.byte	16
 1915 0764 00        		.byte	0
 1916 0765 38        		.byte	56
 1917 0766 44        		.byte	68
 1918 0767 44        		.byte	68
 1919 0768 44        		.byte	68
 1920 0769 44        		.byte	68
 1921 076a 38        		.byte	56
 1922 076b 08        		.byte	8
 1923 076c 10        		.byte	16
 1924 076d 00        		.byte	0
 1925 076e 38        		.byte	56
 1926 076f 44        		.byte	68
 1927 0770 44        		.byte	68
 1928 0771 44        		.byte	68
 1929 0772 44        		.byte	68
 1930 0773 38        		.byte	56
 1931 0774 10        		.byte	16
 1932 0775 28        		.byte	40
 1933 0776 00        		.byte	0
 1934 0777 38        		.byte	56
 1935 0778 44        		.byte	68
 1936 0779 44        		.byte	68
 1937 077a 44        		.byte	68
 1938 077b 44        		.byte	68
 1939 077c 38        		.byte	56
 1940 077d 32        		.byte	50
 1941 077e CC        		.byte	-52
 1942 077f 00        		.byte	0
 1943 0780 38        		.byte	56
 1944 0781 44        		.byte	68
 1945 0782 44        		.byte	68
 1946 0783 44        		.byte	68
 1947 0784 44        		.byte	68
 1948 0785 38        		.byte	56
 1949 0786 00        		.byte	0
 1950 0787 44        		.byte	68
 1951 0788 00        		.byte	0
 1952 0789 38        		.byte	56
 1953 078a 44        		.byte	68
 1954 078b 44        		.byte	68
 1955 078c 44        		.byte	68
 1956 078d 44        		.byte	68
 1957 078e 38        		.byte	56
 1958 078f 00        		.byte	0
 1959 0790 00        		.byte	0
 1960 0791 44        		.byte	68
 1961 0792 28        		.byte	40
 1962 0793 10        		.byte	16
 1963 0794 28        		.byte	40
 1964 0795 44        		.byte	68
 1965 0796 00        		.byte	0
 1966 0797 00        		.byte	0
 1967 0798 00        		.byte	0
 1968 0799 01        		.byte	1
 1969 079a 02        		.byte	2
 1970 079b 3C        		.byte	60
 1971 079c 4C        		.byte	76
 1972 079d 54        		.byte	84
 1973 079e 64        		.byte	100
 1974 079f 44        		.byte	68
 1975 07a0 B8        		.byte	-72
 1976 07a1 20        		.byte	32
 1977 07a2 10        		.byte	16
 1978 07a3 00        		.byte	0
 1979 07a4 44        		.byte	68
 1980 07a5 44        		.byte	68
 1981 07a6 44        		.byte	68
 1982 07a7 44        		.byte	68
 1983 07a8 44        		.byte	68
 1984 07a9 38        		.byte	56
 1985 07aa 08        		.byte	8
 1986 07ab 10        		.byte	16
 1987 07ac 00        		.byte	0
 1988 07ad 44        		.byte	68
 1989 07ae 44        		.byte	68
 1990 07af 44        		.byte	68
 1991 07b0 44        		.byte	68
 1992 07b1 44        		.byte	68
 1993 07b2 38        		.byte	56
 1994 07b3 10        		.byte	16
 1995 07b4 28        		.byte	40
 1996 07b5 00        		.byte	0
 1997 07b6 44        		.byte	68
 1998 07b7 44        		.byte	68
 1999 07b8 44        		.byte	68
 2000 07b9 44        		.byte	68
 2001 07ba 44        		.byte	68
 2002 07bb 38        		.byte	56
 2003 07bc 00        		.byte	0
 2004 07bd 44        		.byte	68
 2005 07be 00        		.byte	0
 2006 07bf 44        		.byte	68
 2007 07c0 44        		.byte	68
 2008 07c1 44        		.byte	68
 2009 07c2 44        		.byte	68
 2010 07c3 44        		.byte	68
 2011 07c4 38        		.byte	56
 2012 07c5 08        		.byte	8
 2013 07c6 10        		.byte	16
 2014 07c7 44        		.byte	68
 2015 07c8 28        		.byte	40
 2016 07c9 10        		.byte	16
 2017 07ca 10        		.byte	16
 2018 07cb 10        		.byte	16
 2019 07cc 10        		.byte	16
 2020 07cd 10        		.byte	16
 2021 07ce 00        		.byte	0
 2022 07cf 00        		.byte	0
 2023 07d0 40        		.byte	64
 2024 07d1 78        		.byte	120
 2025 07d2 44        		.byte	68
 2026 07d3 44        		.byte	68
 2027 07d4 44        		.byte	68
 2028 07d5 78        		.byte	120
 2029 07d6 40        		.byte	64
 2030 07d7 38        		.byte	56
 2031 07d8 44        		.byte	68
 2032 07d9 4C        		.byte	76
 2033 07da 50        		.byte	80
 2034 07db 48        		.byte	72
 2035 07dc 44        		.byte	68
 2036 07dd 44        		.byte	68
 2037 07de 44        		.byte	68
 2038 07df 44        		.byte	68
 2039 07e0 20        		.byte	32
 2040 07e1 10        		.byte	16
 2041 07e2 00        		.byte	0
 2042 07e3 70        		.byte	112
 2043 07e4 08        		.byte	8
 2044 07e5 78        		.byte	120
 2045 07e6 88        		.byte	-120
 2046 07e7 88        		.byte	-120
 2047 07e8 7C        		.byte	124
 2048 07e9 10        		.byte	16
 2049 07ea 20        		.byte	32
 2050 07eb 00        		.byte	0
 2051 07ec 70        		.byte	112
 2052 07ed 08        		.byte	8
 2053 07ee 78        		.byte	120
 2054 07ef 88        		.byte	-120
 2055 07f0 88        		.byte	-120
 2056 07f1 7C        		.byte	124
 2057 07f2 10        		.byte	16
 2058 07f3 28        		.byte	40
 2059 07f4 00        		.byte	0
 2060 07f5 70        		.byte	112
 2061 07f6 08        		.byte	8
 2062 07f7 78        		.byte	120
 2063 07f8 88        		.byte	-120
 2064 07f9 88        		.byte	-120
 2065 07fa 7C        		.byte	124
 2066 07fb 32        		.byte	50
 2067 07fc CC        		.byte	-52
 2068 07fd 00        		.byte	0
 2069 07fe 70        		.byte	112
 2070 07ff 08        		.byte	8
 2071 0800 78        		.byte	120
 2072 0801 88        		.byte	-120
 2073 0802 80        		.byte	-128
 2074 0803 7C        		.byte	124
 2075 0804 00        		.byte	0
 2076 0805 44        		.byte	68
 2077 0806 00        		.byte	0
 2078 0807 70        		.byte	112
 2079 0808 08        		.byte	8
 2080 0809 78        		.byte	120
 2081 080a 88        		.byte	-120
 2082 080b 88        		.byte	-120
 2083 080c 7C        		.byte	124
 2084 080d 10        		.byte	16
 2085 080e 28        		.byte	40
 2086 080f 10        		.byte	16
 2087 0810 70        		.byte	112
 2088 0811 08        		.byte	8
 2089 0812 78        		.byte	120
 2090 0813 88        		.byte	-120
 2091 0814 88        		.byte	-120
 2092 0815 7C        		.byte	124
 2093 0816 00        		.byte	0
 2094 0817 00        		.byte	0
 2095 0818 00        		.byte	0
 2096 0819 EC        		.byte	-20
 2097 081a 12        		.byte	18
 2098 081b 7E        		.byte	126
 2099 081c 90        		.byte	-112
 2100 081d 92        		.byte	-110
 2101 081e AC        		.byte	-84
 2102 081f 00        		.byte	0
 2103 0820 38        		.byte	56
 2104 0821 44        		.byte	68
 2105 0822 40        		.byte	64
 2106 0823 40        		.byte	64
 2107 0824 44        		.byte	68
 2108 0825 38        		.byte	56
 2109 0826 10        		.byte	16
 2110 0827 20        		.byte	32
 2111 0828 20        		.byte	32
 2112 0829 10        		.byte	16
 2113 082a 00        		.byte	0
 2114 082b 38        		.byte	56
 2115 082c 44        		.byte	68
 2116 082d 78        		.byte	120
 2117 082e 40        		.byte	64
 2118 082f 44        		.byte	68
 2119 0830 38        		.byte	56
 2120 0831 08        		.byte	8
 2121 0832 10        		.byte	16
 2122 0833 00        		.byte	0
 2123 0834 38        		.byte	56
 2124 0835 44        		.byte	68
 2125 0836 78        		.byte	120
 2126 0837 40        		.byte	64
 2127 0838 44        		.byte	68
 2128 0839 38        		.byte	56
 2129 083a 10        		.byte	16
 2130 083b 28        		.byte	40
 2131 083c 00        		.byte	0
 2132 083d 38        		.byte	56
 2133 083e 44        		.byte	68
 2134 083f 78        		.byte	120
 2135 0840 40        		.byte	64
 2136 0841 44        		.byte	68
 2137 0842 38        		.byte	56
 2138 0843 00        		.byte	0
 2139 0844 44        		.byte	68
 2140 0845 00        		.byte	0
 2141 0846 38        		.byte	56
 2142 0847 44        		.byte	68
 2143 0848 78        		.byte	120
 2144 0849 40        		.byte	64
 2145 084a 44        		.byte	68
 2146 084b 38        		.byte	56
 2147 084c 20        		.byte	32
 2148 084d 10        		.byte	16
 2149 084e 00        		.byte	0
 2150 084f 10        		.byte	16
 2151 0850 10        		.byte	16
 2152 0851 10        		.byte	16
 2153 0852 10        		.byte	16
 2154 0853 10        		.byte	16
 2155 0854 10        		.byte	16
 2156 0855 08        		.byte	8
 2157 0856 10        		.byte	16
 2158 0857 00        		.byte	0
 2159 0858 10        		.byte	16
 2160 0859 10        		.byte	16
 2161 085a 10        		.byte	16
 2162 085b 10        		.byte	16
 2163 085c 10        		.byte	16
 2164 085d 10        		.byte	16
 2165 085e 10        		.byte	16
 2166 085f 28        		.byte	40
 2167 0860 00        		.byte	0
 2168 0861 10        		.byte	16
 2169 0862 10        		.byte	16
 2170 0863 10        		.byte	16
 2171 0864 10        		.byte	16
 2172 0865 10        		.byte	16
 2173 0866 10        		.byte	16
 2174 0867 00        		.byte	0
 2175 0868 44        		.byte	68
 2176 0869 00        		.byte	0
 2177 086a 10        		.byte	16
 2178 086b 10        		.byte	16
 2179 086c 10        		.byte	16
 2180 086d 10        		.byte	16
 2181 086e 10        		.byte	16
 2182 086f 10        		.byte	16
 2183 0870 28        		.byte	40
 2184 0871 10        		.byte	16
 2185 0872 28        		.byte	40
 2186 0873 38        		.byte	56
 2187 0874 44        		.byte	68
 2188 0875 44        		.byte	68
 2189 0876 44        		.byte	68
 2190 0877 44        		.byte	68
 2191 0878 38        		.byte	56
 2192 0879 30        		.byte	48
 2193 087a CC        		.byte	-52
 2194 087b 00        		.byte	0
 2195 087c 58        		.byte	88
 2196 087d 64        		.byte	100
 2197 087e 44        		.byte	68
 2198 087f 44        		.byte	68
 2199 0880 44        		.byte	68
 2200 0881 44        		.byte	68
 2201 0882 20        		.byte	32
 2202 0883 10        		.byte	16
 2203 0884 00        		.byte	0
 2204 0885 38        		.byte	56
 2205 0886 44        		.byte	68
 2206 0887 44        		.byte	68
 2207 0888 44        		.byte	68
 2208 0889 44        		.byte	68
 2209 088a 38        		.byte	56
 2210 088b 08        		.byte	8
 2211 088c 10        		.byte	16
 2212 088d 00        		.byte	0
 2213 088e 38        		.byte	56
 2214 088f 44        		.byte	68
 2215 0890 44        		.byte	68
 2216 0891 44        		.byte	68
 2217 0892 44        		.byte	68
 2218 0893 38        		.byte	56
 2219 0894 10        		.byte	16
 2220 0895 28        		.byte	40
 2221 0896 00        		.byte	0
 2222 0897 38        		.byte	56
 2223 0898 44        		.byte	68
 2224 0899 44        		.byte	68
 2225 089a 44        		.byte	68
 2226 089b 44        		.byte	68
 2227 089c 38        		.byte	56
 2228 089d 32        		.byte	50
 2229 089e CC        		.byte	-52
 2230 089f 00        		.byte	0
 2231 08a0 38        		.byte	56
 2232 08a1 44        		.byte	68
 2233 08a2 44        		.byte	68
 2234 08a3 44        		.byte	68
 2235 08a4 44        		.byte	68
 2236 08a5 38        		.byte	56
 2237 08a6 00        		.byte	0
 2238 08a7 44        		.byte	68
 2239 08a8 00        		.byte	0
 2240 08a9 38        		.byte	56
 2241 08aa 44        		.byte	68
 2242 08ab 44        		.byte	68
 2243 08ac 44        		.byte	68
 2244 08ad 44        		.byte	68
 2245 08ae 38        		.byte	56
 2246 08af 00        		.byte	0
 2247 08b0 00        		.byte	0
 2248 08b1 10        		.byte	16
 2249 08b2 00        		.byte	0
 2250 08b3 7C        		.byte	124
 2251 08b4 00        		.byte	0
 2252 08b5 10        		.byte	16
 2253 08b6 00        		.byte	0
 2254 08b7 00        		.byte	0
 2255 08b8 00        		.byte	0
 2256 08b9 00        		.byte	0
 2257 08ba 02        		.byte	2
 2258 08bb 3C        		.byte	60
 2259 08bc 4C        		.byte	76
 2260 08bd 92        		.byte	-110
 2261 08be A2        		.byte	-94
 2262 08bf 44        		.byte	68
 2263 08c0 B8        		.byte	-72
 2264 08c1 20        		.byte	32
 2265 08c2 10        		.byte	16
 2266 08c3 00        		.byte	0
 2267 08c4 44        		.byte	68
 2268 08c5 44        		.byte	68
 2269 08c6 44        		.byte	68
 2270 08c7 44        		.byte	68
 2271 08c8 4C        		.byte	76
 2272 08c9 34        		.byte	52
 2273 08ca 08        		.byte	8
 2274 08cb 10        		.byte	16
 2275 08cc 00        		.byte	0
 2276 08cd 44        		.byte	68
 2277 08ce 44        		.byte	68
 2278 08cf 44        		.byte	68
 2279 08d0 44        		.byte	68
 2280 08d1 4C        		.byte	76
 2281 08d2 34        		.byte	52
 2282 08d3 10        		.byte	16
 2283 08d4 28        		.byte	40
 2284 08d5 00        		.byte	0
 2285 08d6 44        		.byte	68
 2286 08d7 44        		.byte	68
 2287 08d8 44        		.byte	68
 2288 08d9 44        		.byte	68
 2289 08da 4C        		.byte	76
 2290 08db 34        		.byte	52
 2291 08dc 00        		.byte	0
 2292 08dd 44        		.byte	68
 2293 08de 00        		.byte	0
 2294 08df 44        		.byte	68
 2295 08e0 44        		.byte	68
 2296 08e1 44        		.byte	68
 2297 08e2 44        		.byte	68
 2298 08e3 4C        		.byte	76
 2299 08e4 34        		.byte	52
 2300 08e5 10        		.byte	16
 2301 08e6 20        		.byte	32
 2302 08e7 00        		.byte	0
 2303 08e8 44        		.byte	68
 2304 08e9 28        		.byte	40
 2305 08ea 10        		.byte	16
 2306 08eb 20        		.byte	32
 2307 08ec 40        		.byte	64
 2308 08ed 80        		.byte	-128
 2309 08ee 00        		.byte	0
 2310 08ef 80        		.byte	-128
 2311 08f0 B0        		.byte	-80
 2312 08f1 C8        		.byte	-56
 2313 08f2 84        		.byte	-124
 2314 08f3 84        		.byte	-124
 2315 08f4 C8        		.byte	-56
 2316 08f5 B0        		.byte	-80
 2317 08f6 80        		.byte	-128
 2318 08f7 00        		.byte	0
 2319 08f8 44        		.byte	68
 2320 08f9 00        		.byte	0
 2321 08fa 44        		.byte	68
 2322 08fb 28        		.byte	40
 2323 08fc 10        		.byte	16
 2324 08fd 20        		.byte	32
 2325 08fe 40        		.byte	64
 2326 08ff 80        		.byte	-128
 2327               		.data
 2328               	.LC0:
 2329 0000 5465 7374 		.string	"Testfirmware.  PCB and Firmware designed by WSyS.at   -   "
 2329      6669 726D 
 2329      7761 7265 
 2329      2E20 2050 
 2329      4342 2061 
 2330               		.text
 2331               	.global	main
 2333               	main:
 2334               	.LFB6:
 2335               	.LM1:
 2336 0000 DF93      		push r29
 2337 0002 CF93      		push r28
 2338 0004 00D0      		rcall .
 2339 0006 CDB7      		in r28,__SP_L__
 2340 0008 DEB7      		in r29,__SP_H__
 2341               	/* prologue: function */
 2342               	/* frame size = 2 */
 2343               	.LM2:
 2344 000a 0E94 0000 		call UARTInit
 2345               	.LM3:
 2346 000e 0E94 0000 		call InitPorts
 2347               	.LM4:
 2348 0012 0E94 0000 		call InitTimer
 2349               	.LM5:
 2350 0016 88E0      		ldi r24,lo8(8)
 2351 0018 8093 0000 		sts CharPosition,r24
 2352               	.LM6:
 2353 001c 1092 0000 		sts CharMoveTimer,__zero_reg__
 2354               	.LM7:
 2355 0020 1092 0000 		sts CharMoveSub,__zero_reg__
 2356               	.LM8:
 2357 0024 1092 0000 		sts CharBlink,__zero_reg__
 2358               	.LM9:
 2359 0028 1092 0000 		sts TextPos,__zero_reg__
 2360               	.LM10:
 2361               	/* #APP */
 2362               	 ;  34 "main.c" 1
 2363 002c 7894      		sei
 2364               	 ;  0 "" 2
 2365               	.LM11:
 2366               	/* #NOAPP */
 2367 002e 80E0      		ldi r24,lo8(.LC0)
 2368 0030 90E0      		ldi r25,hi8(.LC0)
 2369 0032 9A83      		std Y+2,r25
 2370 0034 8983      		std Y+1,r24
 2371               	.L4:
 2372               	.LM12:
 2373 0036 8091 0000 		lds r24,TextPos
 2374 003a 282F      		mov r18,r24
 2375 003c 30E0      		ldi r19,lo8(0)
 2376 003e 8981      		ldd r24,Y+1
 2377 0040 9A81      		ldd r25,Y+2
 2378 0042 FC01      		movw r30,r24
 2379 0044 E20F      		add r30,r18
 2380 0046 F31F      		adc r31,r19
 2381 0048 8081      		ld r24,Z
 2382 004a 8093 0000 		sts AktuellerChar,r24
 2383               	.LM13:
 2384 004e 8091 0000 		lds r24,AktuellerChar
 2385 0052 8823      		tst r24
 2386 0054 01F4      		brne .L2
 2387               	.LM14:
 2388 0056 1092 0000 		sts TextPos,__zero_reg__
 2389               	.LM15:
 2390 005a 8091 0000 		lds r24,TextPos
 2391 005e 282F      		mov r18,r24
 2392 0060 30E0      		ldi r19,lo8(0)
 2393 0062 8981      		ldd r24,Y+1
 2394 0064 9A81      		ldd r25,Y+2
 2395 0066 FC01      		movw r30,r24
 2396 0068 E20F      		add r30,r18
 2397 006a F31F      		adc r31,r19
 2398 006c 8081      		ld r24,Z
 2399 006e 8093 0000 		sts AktuellerChar,r24
 2400               	.L2:
 2401               	.LM16:
 2402 0072 8091 0000 		lds r24,CharMoveSub
 2403 0076 8130      		cpi r24,lo8(1)
 2404 0078 01F4      		brne .L4
 2405               	.LM17:
 2406 007a 1092 0000 		sts CharMoveSub,__zero_reg__
 2407               	.LM18:
 2408 007e 0E94 0000 		call WrtiteCharOut
 2409 0082 00C0      		rjmp .L4
 2410               	.LFE6:
 2412               	.global	InitPorts
 2414               	InitPorts:
 2415               	.LFB7:
 2416               	.LM19:
 2417 0084 DF93      		push r29
 2418 0086 CF93      		push r28
 2419 0088 00D0      		rcall .
 2420 008a CDB7      		in r28,__SP_L__
 2421 008c DEB7      		in r29,__SP_H__
 2422               	/* prologue: function */
 2423               	/* frame size = 2 */
 2424               	.LM20:
 2425 008e E7E3      		ldi r30,lo8(55)
 2426 0090 F0E0      		ldi r31,hi8(55)
 2427 0092 8081      		ld r24,Z
 2428 0094 E7E3      		ldi r30,lo8(55)
 2429 0096 F0E0      		ldi r31,hi8(55)
 2430 0098 8FEF      		ldi r24,lo8(-1)
 2431 009a 8083      		st Z,r24
 2432               	.LM21:
 2433 009c E8E3      		ldi r30,lo8(56)
 2434 009e F0E0      		ldi r31,hi8(56)
 2435 00a0 1082      		st Z,__zero_reg__
 2436               	.LM22:
 2437 00a2 E4E3      		ldi r30,lo8(52)
 2438 00a4 F0E0      		ldi r31,hi8(52)
 2439 00a6 8081      		ld r24,Z
 2440 00a8 E4E3      		ldi r30,lo8(52)
 2441 00aa F0E0      		ldi r31,hi8(52)
 2442 00ac 8FEF      		ldi r24,lo8(-1)
 2443 00ae 8083      		st Z,r24
 2444               	.LM23:
 2445 00b0 E5E3      		ldi r30,lo8(53)
 2446 00b2 F0E0      		ldi r31,hi8(53)
 2447 00b4 1082      		st Z,__zero_reg__
 2448               	/* epilogue start */
 2449               	.LM24:
 2450 00b6 0F90      		pop __tmp_reg__
 2451 00b8 0F90      		pop __tmp_reg__
 2452 00ba CF91      		pop r28
 2453 00bc DF91      		pop r29
 2454 00be 0895      		ret
 2455               	.LFE7:
 2457               	.global	InitTimer
 2459               	InitTimer:
 2460               	.LFB8:
 2461               	.LM25:
 2462 00c0 DF93      		push r29
 2463 00c2 CF93      		push r28
 2464 00c4 CDB7      		in r28,__SP_L__
 2465 00c6 DEB7      		in r29,__SP_H__
 2466               	/* prologue: function */
 2467               	/* frame size = 0 */
 2468               	.LM26:
 2469 00c8 EFE4      		ldi r30,lo8(79)
 2470 00ca F0E0      		ldi r31,hi8(79)
 2471 00cc 1082      		st Z,__zero_reg__
 2472               	.LM27:
 2473 00ce EEE4      		ldi r30,lo8(78)
 2474 00d0 F0E0      		ldi r31,hi8(78)
 2475 00d2 8BE0      		ldi r24,lo8(11)
 2476 00d4 8083      		st Z,r24
 2477               	.LM28:
 2478 00d6 EAE4      		ldi r30,lo8(74)
 2479 00d8 F0E0      		ldi r31,hi8(74)
 2480 00da 8CE7      		ldi r24,lo8(124)
 2481 00dc 90E0      		ldi r25,hi8(124)
 2482 00de 9183      		std Z+1,r25
 2483 00e0 8083      		st Z,r24
 2484               	.LM29:
 2485 00e2 A9E5      		ldi r26,lo8(89)
 2486 00e4 B0E0      		ldi r27,hi8(89)
 2487 00e6 E9E5      		ldi r30,lo8(89)
 2488 00e8 F0E0      		ldi r31,hi8(89)
 2489 00ea 8081      		ld r24,Z
 2490 00ec 8061      		ori r24,lo8(16)
 2491 00ee 8C93      		st X,r24
 2492               	/* epilogue start */
 2493               	.LM30:
 2494 00f0 CF91      		pop r28
 2495 00f2 DF91      		pop r29
 2496 00f4 0895      		ret
 2497               	.LFE8:
 2499               	.global	WrtiteCharOut
 2501               	WrtiteCharOut:
 2502               	.LFB9:
 2503               	.LM31:
 2504 00f6 DF93      		push r29
 2505 00f8 CF93      		push r28
 2506 00fa 00D0      		rcall .
 2507 00fc 00D0      		rcall .
 2508 00fe CDB7      		in r28,__SP_L__
 2509 0100 DEB7      		in r29,__SP_H__
 2510               	/* prologue: function */
 2511               	/* frame size = 4 */
 2512               	.LM32:
 2513 0102 0E94 0000 		call display0
 2514               	.LM33:
 2515 0106 8091 0000 		lds r24,CharBlink
 2516 010a 8823      		tst r24
 2517 010c 01F4      		brne .L11
 2518               	.LM34:
 2519 010e 0E94 0000 		call LZSend0
 2520 0112 00C0      		rjmp .L12
 2521               	.L11:
 2522               	.LM35:
 2523 0114 0E94 0000 		call LZSend1
 2524               	.L12:
 2525               	.LBB2:
 2526               	.LM36:
 2527 0118 1C82      		std Y+4,__zero_reg__
 2528 011a 00C0      		rjmp .L13
 2529               	.L16:
 2530               	.LBB3:
 2531               	.LM37:
 2532 011c 40E0      		ldi r20,lo8(font)
 2533 011e 50E0      		ldi r21,hi8(font)
 2534 0120 8091 0000 		lds r24,AktuellerChar
 2535 0124 282F      		mov r18,r24
 2536 0126 30E0      		ldi r19,lo8(0)
 2537 0128 C901      		movw r24,r18
 2538 012a 880F      		lsl r24
 2539 012c 991F      		rol r25
 2540 012e 880F      		lsl r24
 2541 0130 991F      		rol r25
 2542 0132 880F      		lsl r24
 2543 0134 991F      		rol r25
 2544 0136 280F      		add r18,r24
 2545 0138 391F      		adc r19,r25
 2546 013a 8C81      		ldd r24,Y+4
 2547 013c 882F      		mov r24,r24
 2548 013e 90E0      		ldi r25,lo8(0)
 2549 0140 820F      		add r24,r18
 2550 0142 931F      		adc r25,r19
 2551 0144 840F      		add r24,r20
 2552 0146 951F      		adc r25,r21
 2553 0148 9B83      		std Y+3,r25
 2554 014a 8A83      		std Y+2,r24
 2555 014c EA81      		ldd r30,Y+2
 2556 014e FB81      		ldd r31,Y+3
 2557               	/* #APP */
 2558               	 ;  115 "main.c" 1
 2559 0150 8491      		lpm r24, Z
 2560               		
 2561               	 ;  0 "" 2
 2562               	/* #NOAPP */
 2563 0152 8983      		std Y+1,r24
 2564 0154 8981      		ldd r24,Y+1
 2565               	.LBE3:
 2566 0156 282F      		mov r18,r24
 2567 0158 30E0      		ldi r19,lo8(0)
 2568 015a 8091 0000 		lds r24,CharPosition
 2569 015e 882F      		mov r24,r24
 2570 0160 90E0      		ldi r25,lo8(0)
 2571 0162 A901      		movw r20,r18
 2572 0164 00C0      		rjmp 2f
 2573 0166 5595      	1:	asr r21
 2574 0168 4795      		ror r20
 2575 016a 8A95      	2:	dec r24
 2576 016c 02F4      		brpl 1b
 2577 016e CA01      		movw r24,r20
 2578 0170 8170      		andi r24,lo8(1)
 2579 0172 9070      		andi r25,hi8(1)
 2580 0174 8823      		tst r24
 2581 0176 01F0      		breq .L14
 2582               	.LM38:
 2583 0178 0E94 0000 		call LZSend1
 2584 017c 00C0      		rjmp .L15
 2585               	.L14:
 2586               	.LM39:
 2587 017e 0E94 0000 		call LZSend0
 2588               	.L15:
 2589               	.LM40:
 2590 0182 8C81      		ldd r24,Y+4
 2591 0184 8F5F      		subi r24,lo8(-(1))
 2592 0186 8C83      		std Y+4,r24
 2593               	.L13:
 2594 0188 8C81      		ldd r24,Y+4
 2595 018a 8930      		cpi r24,lo8(9)
 2596 018c 01F4      		brne .L16
 2597               	.LBE2:
 2598               	.LM41:
 2599 018e 0E94 0000 		call display1
 2600               	.LM42:
 2601 0192 8091 0000 		lds r24,CharPosition
 2602 0196 8150      		subi r24,lo8(-(-1))
 2603 0198 8093 0000 		sts CharPosition,r24
 2604               	.LM43:
 2605 019c 8091 0000 		lds r24,CharPosition
 2606 01a0 8823      		tst r24
 2607 01a2 01F4      		brne .L18
 2608               	.LM44:
 2609 01a4 88E0      		ldi r24,lo8(8)
 2610 01a6 8093 0000 		sts CharPosition,r24
 2611               	.LM45:
 2612 01aa 8091 0000 		lds r24,TextPos
 2613 01ae 8F5F      		subi r24,lo8(-(1))
 2614 01b0 8093 0000 		sts TextPos,r24
 2615               	.LM46:
 2616 01b4 0E94 0000 		call TogRedLed
 2617               	.L18:
 2618               	/* epilogue start */
 2619               	.LM47:
 2620 01b8 0F90      		pop __tmp_reg__
 2621 01ba 0F90      		pop __tmp_reg__
 2622 01bc 0F90      		pop __tmp_reg__
 2623 01be 0F90      		pop __tmp_reg__
 2624 01c0 CF91      		pop r28
 2625 01c2 DF91      		pop r29
 2626 01c4 0895      		ret
 2627               	.LFE9:
 2629               	.global	LZSend0
 2631               	LZSend0:
 2632               	.LFB10:
 2633               	.LM48:
 2634 01c6 DF93      		push r29
 2635 01c8 CF93      		push r28
 2636 01ca CDB7      		in r28,__SP_L__
 2637 01cc DEB7      		in r29,__SP_H__
 2638               	/* prologue: function */
 2639               	/* frame size = 0 */
 2640               	.LM49:
 2641 01ce 0E94 0000 		call data0
 2642 01d2 0E94 0000 		call clock
 2643               	/* epilogue start */
 2644               	.LM50:
 2645 01d6 CF91      		pop r28
 2646 01d8 DF91      		pop r29
 2647 01da 0895      		ret
 2648               	.LFE10:
 2650               	.global	LZSend1
 2652               	LZSend1:
 2653               	.LFB11:
 2654               	.LM51:
 2655 01dc DF93      		push r29
 2656 01de CF93      		push r28
 2657 01e0 CDB7      		in r28,__SP_L__
 2658 01e2 DEB7      		in r29,__SP_H__
 2659               	/* prologue: function */
 2660               	/* frame size = 0 */
 2661               	.LM52:
 2662 01e4 0E94 0000 		call data1
 2663 01e8 0E94 0000 		call clock
 2664               	/* epilogue start */
 2665               	.LM53:
 2666 01ec CF91      		pop r28
 2667 01ee DF91      		pop r29
 2668 01f0 0895      		ret
 2669               	.LFE11:
 2671               	.global	data0
 2673               	data0:
 2674               	.LFB12:
 2675               	.LM54:
 2676 01f2 DF93      		push r29
 2677 01f4 CF93      		push r28
 2678 01f6 CDB7      		in r28,__SP_L__
 2679 01f8 DEB7      		in r29,__SP_H__
 2680 01fa 6897      		sbiw r28,24
 2681 01fc 0FB6      		in __tmp_reg__,__SREG__
 2682 01fe F894      		cli
 2683 0200 DEBF      		out __SP_H__,r29
 2684 0202 0FBE      		out __SREG__,__tmp_reg__
 2685 0204 CDBF      		out __SP_L__,r28
 2686               	/* prologue: function */
 2687               	/* frame size = 24 */
 2688               	.LM55:
 2689 0206 A8E3      		ldi r26,lo8(56)
 2690 0208 B0E0      		ldi r27,hi8(56)
 2691 020a E8E3      		ldi r30,lo8(56)
 2692 020c F0E0      		ldi r31,hi8(56)
 2693 020e 8081      		ld r24,Z
 2694 0210 877F      		andi r24,lo8(-9)
 2695 0212 8C93      		st X,r24
 2696 0214 80E0      		ldi r24,lo8(0x40000000)
 2697 0216 90E0      		ldi r25,hi8(0x40000000)
 2698 0218 A0E0      		ldi r26,hlo8(0x40000000)
 2699 021a B0E4      		ldi r27,hhi8(0x40000000)
 2700 021c 8D8B      		std Y+21,r24
 2701 021e 9E8B      		std Y+22,r25
 2702 0220 AF8B      		std Y+23,r26
 2703 0222 B88F      		std Y+24,r27
 2704               	.LBB14:
 2705               	.LBB15:
 2706               	.LM56:
 2707 0224 6D89      		ldd r22,Y+21
 2708 0226 7E89      		ldd r23,Y+22
 2709 0228 8F89      		ldd r24,Y+23
 2710 022a 988D      		ldd r25,Y+24
 2711 022c 2BEA      		ldi r18,lo8(0x402aaaab)
 2712 022e 3AEA      		ldi r19,hi8(0x402aaaab)
 2713 0230 4AE2      		ldi r20,hlo8(0x402aaaab)
 2714 0232 50E4      		ldi r21,hhi8(0x402aaaab)
 2715 0234 0E94 0000 		call __mulsf3
 2716 0238 DC01      		movw r26,r24
 2717 023a CB01      		movw r24,r22
 2718 023c 898B      		std Y+17,r24
 2719 023e 9A8B      		std Y+18,r25
 2720 0240 AB8B      		std Y+19,r26
 2721 0242 BC8B      		std Y+20,r27
 2722               	.LM57:
 2723 0244 6989      		ldd r22,Y+17
 2724 0246 7A89      		ldd r23,Y+18
 2725 0248 8B89      		ldd r24,Y+19
 2726 024a 9C89      		ldd r25,Y+20
 2727 024c 20E0      		ldi r18,lo8(0x3f800000)
 2728 024e 30E0      		ldi r19,hi8(0x3f800000)
 2729 0250 40E8      		ldi r20,hlo8(0x3f800000)
 2730 0252 5FE3      		ldi r21,hhi8(0x3f800000)
 2731 0254 0E94 0000 		call __ltsf2
 2732 0258 8823      		tst r24
 2733 025a 04F4      		brge .L43
 2734               	.L39:
 2735               	.LM58:
 2736 025c 81E0      		ldi r24,lo8(1)
 2737 025e 888B      		std Y+16,r24
 2738 0260 00C0      		rjmp .L26
 2739               	.L43:
 2740               	.LM59:
 2741 0262 6989      		ldd r22,Y+17
 2742 0264 7A89      		ldd r23,Y+18
 2743 0266 8B89      		ldd r24,Y+19
 2744 0268 9C89      		ldd r25,Y+20
 2745 026a 20E0      		ldi r18,lo8(0x437f0000)
 2746 026c 30E0      		ldi r19,hi8(0x437f0000)
 2747 026e 4FE7      		ldi r20,hlo8(0x437f0000)
 2748 0270 53E4      		ldi r21,hhi8(0x437f0000)
 2749 0272 0E94 0000 		call __gtsf2
 2750 0276 1816      		cp __zero_reg__,r24
 2751 0278 04F0      		brlt .+2
 2752 027a 00C0      		rjmp .L44
 2753               	.L40:
 2754               	.LM60:
 2755 027c 6D89      		ldd r22,Y+21
 2756 027e 7E89      		ldd r23,Y+22
 2757 0280 8F89      		ldd r24,Y+23
 2758 0282 988D      		ldd r25,Y+24
 2759 0284 20E0      		ldi r18,lo8(0x447a0000)
 2760 0286 30E0      		ldi r19,hi8(0x447a0000)
 2761 0288 4AE7      		ldi r20,hlo8(0x447a0000)
 2762 028a 54E4      		ldi r21,hhi8(0x447a0000)
 2763 028c 0E94 0000 		call __divsf3
 2764 0290 DC01      		movw r26,r24
 2765 0292 CB01      		movw r24,r22
 2766 0294 8C87      		std Y+12,r24
 2767 0296 9D87      		std Y+13,r25
 2768 0298 AE87      		std Y+14,r26
 2769 029a BF87      		std Y+15,r27
 2770               	.LBB16:
 2771               	.LBB17:
 2772               	.LM61:
 2773 029c 6C85      		ldd r22,Y+12
 2774 029e 7D85      		ldd r23,Y+13
 2775 02a0 8E85      		ldd r24,Y+14
 2776 02a2 9F85      		ldd r25,Y+15
 2777 02a4 20E0      		ldi r18,lo8(0x44fa0000)
 2778 02a6 30E0      		ldi r19,hi8(0x44fa0000)
 2779 02a8 4AEF      		ldi r20,hlo8(0x44fa0000)
 2780 02aa 54E4      		ldi r21,hhi8(0x44fa0000)
 2781 02ac 0E94 0000 		call __mulsf3
 2782 02b0 DC01      		movw r26,r24
 2783 02b2 CB01      		movw r24,r22
 2784 02b4 8887      		std Y+8,r24
 2785 02b6 9987      		std Y+9,r25
 2786 02b8 AA87      		std Y+10,r26
 2787 02ba BB87      		std Y+11,r27
 2788               	.LM62:
 2789 02bc 6885      		ldd r22,Y+8
 2790 02be 7985      		ldd r23,Y+9
 2791 02c0 8A85      		ldd r24,Y+10
 2792 02c2 9B85      		ldd r25,Y+11
 2793 02c4 20E0      		ldi r18,lo8(0x3f800000)
 2794 02c6 30E0      		ldi r19,hi8(0x3f800000)
 2795 02c8 40E8      		ldi r20,hlo8(0x3f800000)
 2796 02ca 5FE3      		ldi r21,hhi8(0x3f800000)
 2797 02cc 0E94 0000 		call __ltsf2
 2798 02d0 8823      		tst r24
 2799 02d2 04F4      		brge .L45
 2800               	.L41:
 2801               	.LM63:
 2802 02d4 81E0      		ldi r24,lo8(1)
 2803 02d6 90E0      		ldi r25,hi8(1)
 2804 02d8 9F83      		std Y+7,r25
 2805 02da 8E83      		std Y+6,r24
 2806 02dc 00C0      		rjmp .L31
 2807               	.L45:
 2808               	.LM64:
 2809 02de 6885      		ldd r22,Y+8
 2810 02e0 7985      		ldd r23,Y+9
 2811 02e2 8A85      		ldd r24,Y+10
 2812 02e4 9B85      		ldd r25,Y+11
 2813 02e6 20E0      		ldi r18,lo8(0x477fff00)
 2814 02e8 3FEF      		ldi r19,hi8(0x477fff00)
 2815 02ea 4FE7      		ldi r20,hlo8(0x477fff00)
 2816 02ec 57E4      		ldi r21,hhi8(0x477fff00)
 2817 02ee 0E94 0000 		call __gtsf2
 2818 02f2 1816      		cp __zero_reg__,r24
 2819 02f4 04F4      		brge .L46
 2820               	.L42:
 2821               	.LM65:
 2822 02f6 6C85      		ldd r22,Y+12
 2823 02f8 7D85      		ldd r23,Y+13
 2824 02fa 8E85      		ldd r24,Y+14
 2825 02fc 9F85      		ldd r25,Y+15
 2826 02fe 20E0      		ldi r18,lo8(0x41200000)
 2827 0300 30E0      		ldi r19,hi8(0x41200000)
 2828 0302 40E2      		ldi r20,hlo8(0x41200000)
 2829 0304 51E4      		ldi r21,hhi8(0x41200000)
 2830 0306 0E94 0000 		call __mulsf3
 2831 030a DC01      		movw r26,r24
 2832 030c CB01      		movw r24,r22
 2833 030e BC01      		movw r22,r24
 2834 0310 CD01      		movw r24,r26
 2835 0312 0E94 0000 		call __fixunssfsi
 2836 0316 DC01      		movw r26,r24
 2837 0318 CB01      		movw r24,r22
 2838 031a 9F83      		std Y+7,r25
 2839 031c 8E83      		std Y+6,r24
 2840 031e 00C0      		rjmp .L34
 2841               	.L35:
 2842 0320 88EC      		ldi r24,lo8(200)
 2843 0322 90E0      		ldi r25,hi8(200)
 2844 0324 9D83      		std Y+5,r25
 2845 0326 8C83      		std Y+4,r24
 2846               	.LBB18:
 2847               	.LBB19:
 2848               	.LM66:
 2849 0328 8C81      		ldd r24,Y+4
 2850 032a 9D81      		ldd r25,Y+5
 2851               	/* #APP */
 2852               	 ;  105 "/opt/cross/avr/lib/gcc/avr/4.3.3/../../../../avr/include/util/delay_basic.h" 1
 2853 032c 0197      		1: sbiw r24,1
 2854 032e 01F4      		brne 1b
 2855               	 ;  0 "" 2
 2856               	/* #NOAPP */
 2857 0330 9D83      		std Y+5,r25
 2858 0332 8C83      		std Y+4,r24
 2859               	.LBE19:
 2860               	.LBE18:
 2861               	.LM67:
 2862 0334 8E81      		ldd r24,Y+6
 2863 0336 9F81      		ldd r25,Y+7
 2864 0338 0197      		sbiw r24,1
 2865 033a 9F83      		std Y+7,r25
 2866 033c 8E83      		std Y+6,r24
 2867               	.L34:
 2868               	.LM68:
 2869 033e 8E81      		ldd r24,Y+6
 2870 0340 9F81      		ldd r25,Y+7
 2871 0342 0097      		sbiw r24,0
 2872 0344 01F4      		brne .L35
 2873 0346 00C0      		rjmp .L38
 2874               	.L46:
 2875               	.LM69:
 2876 0348 6885      		ldd r22,Y+8
 2877 034a 7985      		ldd r23,Y+9
 2878 034c 8A85      		ldd r24,Y+10
 2879 034e 9B85      		ldd r25,Y+11
 2880 0350 0E94 0000 		call __fixunssfsi
 2881 0354 DC01      		movw r26,r24
 2882 0356 CB01      		movw r24,r22
 2883 0358 9F83      		std Y+7,r25
 2884 035a 8E83      		std Y+6,r24
 2885               	.L31:
 2886 035c 8E81      		ldd r24,Y+6
 2887 035e 9F81      		ldd r25,Y+7
 2888 0360 9B83      		std Y+3,r25
 2889 0362 8A83      		std Y+2,r24
 2890               	.LBB20:
 2891               	.LBB21:
 2892               	.LM70:
 2893 0364 8A81      		ldd r24,Y+2
 2894 0366 9B81      		ldd r25,Y+3
 2895               	/* #APP */
 2896               	 ;  105 "/opt/cross/avr/lib/gcc/avr/4.3.3/../../../../avr/include/util/delay_basic.h" 1
 2897 0368 0197      		1: sbiw r24,1
 2898 036a 01F4      		brne 1b
 2899               	 ;  0 "" 2
 2900               	/* #NOAPP */
 2901 036c 9B83      		std Y+3,r25
 2902 036e 8A83      		std Y+2,r24
 2903 0370 00C0      		rjmp .L38
 2904               	.L44:
 2905               	.LBE21:
 2906               	.LBE20:
 2907               	.LBE17:
 2908               	.LBE16:
 2909               	.LM71:
 2910 0372 6989      		ldd r22,Y+17
 2911 0374 7A89      		ldd r23,Y+18
 2912 0376 8B89      		ldd r24,Y+19
 2913 0378 9C89      		ldd r25,Y+20
 2914 037a 0E94 0000 		call __fixunssfsi
 2915 037e DC01      		movw r26,r24
 2916 0380 CB01      		movw r24,r22
 2917 0382 888B      		std Y+16,r24
 2918               	.L26:
 2919 0384 8889      		ldd r24,Y+16
 2920 0386 8983      		std Y+1,r24
 2921               	.LBB22:
 2922               	.LBB23:
 2923               	.LM72:
 2924 0388 8981      		ldd r24,Y+1
 2925               	/* #APP */
 2926               	 ;  83 "/opt/cross/avr/lib/gcc/avr/4.3.3/../../../../avr/include/util/delay_basic.h" 1
 2927 038a 8A95      		1: dec r24
 2928 038c 01F4      		brne 1b
 2929               	 ;  0 "" 2
 2930               	/* #NOAPP */
 2931 038e 8983      		std Y+1,r24
 2932               	.L38:
 2933               	/* epilogue start */
 2934               	.LBE23:
 2935               	.LBE22:
 2936               	.LBE15:
 2937               	.LBE14:
 2938               	.LM73:
 2939 0390 6896      		adiw r28,24
 2940 0392 0FB6      		in __tmp_reg__,__SREG__
 2941 0394 F894      		cli
 2942 0396 DEBF      		out __SP_H__,r29
 2943 0398 0FBE      		out __SREG__,__tmp_reg__
 2944 039a CDBF      		out __SP_L__,r28
 2945 039c CF91      		pop r28
 2946 039e DF91      		pop r29
 2947 03a0 0895      		ret
 2948               	.LFE12:
 2950               	.global	data1
 2952               	data1:
 2953               	.LFB13:
 2954               	.LM74:
 2955 03a2 DF93      		push r29
 2956 03a4 CF93      		push r28
 2957 03a6 CDB7      		in r28,__SP_L__
 2958 03a8 DEB7      		in r29,__SP_H__
 2959 03aa 6897      		sbiw r28,24
 2960 03ac 0FB6      		in __tmp_reg__,__SREG__
 2961 03ae F894      		cli
 2962 03b0 DEBF      		out __SP_H__,r29
 2963 03b2 0FBE      		out __SREG__,__tmp_reg__
 2964 03b4 CDBF      		out __SP_L__,r28
 2965               	/* prologue: function */
 2966               	/* frame size = 24 */
 2967               	.LM75:
 2968 03b6 A8E3      		ldi r26,lo8(56)
 2969 03b8 B0E0      		ldi r27,hi8(56)
 2970 03ba E8E3      		ldi r30,lo8(56)
 2971 03bc F0E0      		ldi r31,hi8(56)
 2972 03be 8081      		ld r24,Z
 2973 03c0 8860      		ori r24,lo8(8)
 2974 03c2 8C93      		st X,r24
 2975 03c4 80E0      		ldi r24,lo8(0x40000000)
 2976 03c6 90E0      		ldi r25,hi8(0x40000000)
 2977 03c8 A0E0      		ldi r26,hlo8(0x40000000)
 2978 03ca B0E4      		ldi r27,hhi8(0x40000000)
 2979 03cc 8D8B      		std Y+21,r24
 2980 03ce 9E8B      		std Y+22,r25
 2981 03d0 AF8B      		std Y+23,r26
 2982 03d2 B88F      		std Y+24,r27
 2983               	.LBB34:
 2984               	.LBB35:
 2985               	.LM76:
 2986 03d4 6D89      		ldd r22,Y+21
 2987 03d6 7E89      		ldd r23,Y+22
 2988 03d8 8F89      		ldd r24,Y+23
 2989 03da 988D      		ldd r25,Y+24
 2990 03dc 2BEA      		ldi r18,lo8(0x402aaaab)
 2991 03de 3AEA      		ldi r19,hi8(0x402aaaab)
 2992 03e0 4AE2      		ldi r20,hlo8(0x402aaaab)
 2993 03e2 50E4      		ldi r21,hhi8(0x402aaaab)
 2994 03e4 0E94 0000 		call __mulsf3
 2995 03e8 DC01      		movw r26,r24
 2996 03ea CB01      		movw r24,r22
 2997 03ec 898B      		std Y+17,r24
 2998 03ee 9A8B      		std Y+18,r25
 2999 03f0 AB8B      		std Y+19,r26
 3000 03f2 BC8B      		std Y+20,r27
 3001               	.LM77:
 3002 03f4 6989      		ldd r22,Y+17
 3003 03f6 7A89      		ldd r23,Y+18
 3004 03f8 8B89      		ldd r24,Y+19
 3005 03fa 9C89      		ldd r25,Y+20
 3006 03fc 20E0      		ldi r18,lo8(0x3f800000)
 3007 03fe 30E0      		ldi r19,hi8(0x3f800000)
 3008 0400 40E8      		ldi r20,hlo8(0x3f800000)
 3009 0402 5FE3      		ldi r21,hhi8(0x3f800000)
 3010 0404 0E94 0000 		call __ltsf2
 3011 0408 8823      		tst r24
 3012 040a 04F4      		brge .L67
 3013               	.L63:
 3014               	.LM78:
 3015 040c 81E0      		ldi r24,lo8(1)
 3016 040e 888B      		std Y+16,r24
 3017 0410 00C0      		rjmp .L50
 3018               	.L67:
 3019               	.LM79:
 3020 0412 6989      		ldd r22,Y+17
 3021 0414 7A89      		ldd r23,Y+18
 3022 0416 8B89      		ldd r24,Y+19
 3023 0418 9C89      		ldd r25,Y+20
 3024 041a 20E0      		ldi r18,lo8(0x437f0000)
 3025 041c 30E0      		ldi r19,hi8(0x437f0000)
 3026 041e 4FE7      		ldi r20,hlo8(0x437f0000)
 3027 0420 53E4      		ldi r21,hhi8(0x437f0000)
 3028 0422 0E94 0000 		call __gtsf2
 3029 0426 1816      		cp __zero_reg__,r24
 3030 0428 04F0      		brlt .+2
 3031 042a 00C0      		rjmp .L68
 3032               	.L64:
 3033               	.LM80:
 3034 042c 6D89      		ldd r22,Y+21
 3035 042e 7E89      		ldd r23,Y+22
 3036 0430 8F89      		ldd r24,Y+23
 3037 0432 988D      		ldd r25,Y+24
 3038 0434 20E0      		ldi r18,lo8(0x447a0000)
 3039 0436 30E0      		ldi r19,hi8(0x447a0000)
 3040 0438 4AE7      		ldi r20,hlo8(0x447a0000)
 3041 043a 54E4      		ldi r21,hhi8(0x447a0000)
 3042 043c 0E94 0000 		call __divsf3
 3043 0440 DC01      		movw r26,r24
 3044 0442 CB01      		movw r24,r22
 3045 0444 8C87      		std Y+12,r24
 3046 0446 9D87      		std Y+13,r25
 3047 0448 AE87      		std Y+14,r26
 3048 044a BF87      		std Y+15,r27
 3049               	.LBB36:
 3050               	.LBB37:
 3051               	.LM81:
 3052 044c 6C85      		ldd r22,Y+12
 3053 044e 7D85      		ldd r23,Y+13
 3054 0450 8E85      		ldd r24,Y+14
 3055 0452 9F85      		ldd r25,Y+15
 3056 0454 20E0      		ldi r18,lo8(0x44fa0000)
 3057 0456 30E0      		ldi r19,hi8(0x44fa0000)
 3058 0458 4AEF      		ldi r20,hlo8(0x44fa0000)
 3059 045a 54E4      		ldi r21,hhi8(0x44fa0000)
 3060 045c 0E94 0000 		call __mulsf3
 3061 0460 DC01      		movw r26,r24
 3062 0462 CB01      		movw r24,r22
 3063 0464 8887      		std Y+8,r24
 3064 0466 9987      		std Y+9,r25
 3065 0468 AA87      		std Y+10,r26
 3066 046a BB87      		std Y+11,r27
 3067               	.LM82:
 3068 046c 6885      		ldd r22,Y+8
 3069 046e 7985      		ldd r23,Y+9
 3070 0470 8A85      		ldd r24,Y+10
 3071 0472 9B85      		ldd r25,Y+11
 3072 0474 20E0      		ldi r18,lo8(0x3f800000)
 3073 0476 30E0      		ldi r19,hi8(0x3f800000)
 3074 0478 40E8      		ldi r20,hlo8(0x3f800000)
 3075 047a 5FE3      		ldi r21,hhi8(0x3f800000)
 3076 047c 0E94 0000 		call __ltsf2
 3077 0480 8823      		tst r24
 3078 0482 04F4      		brge .L69
 3079               	.L65:
 3080               	.LM83:
 3081 0484 81E0      		ldi r24,lo8(1)
 3082 0486 90E0      		ldi r25,hi8(1)
 3083 0488 9F83      		std Y+7,r25
 3084 048a 8E83      		std Y+6,r24
 3085 048c 00C0      		rjmp .L55
 3086               	.L69:
 3087               	.LM84:
 3088 048e 6885      		ldd r22,Y+8
 3089 0490 7985      		ldd r23,Y+9
 3090 0492 8A85      		ldd r24,Y+10
 3091 0494 9B85      		ldd r25,Y+11
 3092 0496 20E0      		ldi r18,lo8(0x477fff00)
 3093 0498 3FEF      		ldi r19,hi8(0x477fff00)
 3094 049a 4FE7      		ldi r20,hlo8(0x477fff00)
 3095 049c 57E4      		ldi r21,hhi8(0x477fff00)
 3096 049e 0E94 0000 		call __gtsf2
 3097 04a2 1816      		cp __zero_reg__,r24
 3098 04a4 04F4      		brge .L70
 3099               	.L66:
 3100               	.LM85:
 3101 04a6 6C85      		ldd r22,Y+12
 3102 04a8 7D85      		ldd r23,Y+13
 3103 04aa 8E85      		ldd r24,Y+14
 3104 04ac 9F85      		ldd r25,Y+15
 3105 04ae 20E0      		ldi r18,lo8(0x41200000)
 3106 04b0 30E0      		ldi r19,hi8(0x41200000)
 3107 04b2 40E2      		ldi r20,hlo8(0x41200000)
 3108 04b4 51E4      		ldi r21,hhi8(0x41200000)
 3109 04b6 0E94 0000 		call __mulsf3
 3110 04ba DC01      		movw r26,r24
 3111 04bc CB01      		movw r24,r22
 3112 04be BC01      		movw r22,r24
 3113 04c0 CD01      		movw r24,r26
 3114 04c2 0E94 0000 		call __fixunssfsi
 3115 04c6 DC01      		movw r26,r24
 3116 04c8 CB01      		movw r24,r22
 3117 04ca 9F83      		std Y+7,r25
 3118 04cc 8E83      		std Y+6,r24
 3119 04ce 00C0      		rjmp .L58
 3120               	.L59:
 3121 04d0 88EC      		ldi r24,lo8(200)
 3122 04d2 90E0      		ldi r25,hi8(200)
 3123 04d4 9D83      		std Y+5,r25
 3124 04d6 8C83      		std Y+4,r24
 3125               	.LBB38:
 3126               	.LBB39:
 3127               	.LM86:
 3128 04d8 8C81      		ldd r24,Y+4
 3129 04da 9D81      		ldd r25,Y+5
 3130               	/* #APP */
 3131               	 ;  105 "/opt/cross/avr/lib/gcc/avr/4.3.3/../../../../avr/include/util/delay_basic.h" 1
 3132 04dc 0197      		1: sbiw r24,1
 3133 04de 01F4      		brne 1b
 3134               	 ;  0 "" 2
 3135               	/* #NOAPP */
 3136 04e0 9D83      		std Y+5,r25
 3137 04e2 8C83      		std Y+4,r24
 3138               	.LBE39:
 3139               	.LBE38:
 3140               	.LM87:
 3141 04e4 8E81      		ldd r24,Y+6
 3142 04e6 9F81      		ldd r25,Y+7
 3143 04e8 0197      		sbiw r24,1
 3144 04ea 9F83      		std Y+7,r25
 3145 04ec 8E83      		std Y+6,r24
 3146               	.L58:
 3147               	.LM88:
 3148 04ee 8E81      		ldd r24,Y+6
 3149 04f0 9F81      		ldd r25,Y+7
 3150 04f2 0097      		sbiw r24,0
 3151 04f4 01F4      		brne .L59
 3152 04f6 00C0      		rjmp .L62
 3153               	.L70:
 3154               	.LM89:
 3155 04f8 6885      		ldd r22,Y+8
 3156 04fa 7985      		ldd r23,Y+9
 3157 04fc 8A85      		ldd r24,Y+10
 3158 04fe 9B85      		ldd r25,Y+11
 3159 0500 0E94 0000 		call __fixunssfsi
 3160 0504 DC01      		movw r26,r24
 3161 0506 CB01      		movw r24,r22
 3162 0508 9F83      		std Y+7,r25
 3163 050a 8E83      		std Y+6,r24
 3164               	.L55:
 3165 050c 8E81      		ldd r24,Y+6
 3166 050e 9F81      		ldd r25,Y+7
 3167 0510 9B83      		std Y+3,r25
 3168 0512 8A83      		std Y+2,r24
 3169               	.LBB40:
 3170               	.LBB41:
 3171               	.LM90:
 3172 0514 8A81      		ldd r24,Y+2
 3173 0516 9B81      		ldd r25,Y+3
 3174               	/* #APP */
 3175               	 ;  105 "/opt/cross/avr/lib/gcc/avr/4.3.3/../../../../avr/include/util/delay_basic.h" 1
 3176 0518 0197      		1: sbiw r24,1
 3177 051a 01F4      		brne 1b
 3178               	 ;  0 "" 2
 3179               	/* #NOAPP */
 3180 051c 9B83      		std Y+3,r25
 3181 051e 8A83      		std Y+2,r24
 3182 0520 00C0      		rjmp .L62
 3183               	.L68:
 3184               	.LBE41:
 3185               	.LBE40:
 3186               	.LBE37:
 3187               	.LBE36:
 3188               	.LM91:
 3189 0522 6989      		ldd r22,Y+17
 3190 0524 7A89      		ldd r23,Y+18
 3191 0526 8B89      		ldd r24,Y+19
 3192 0528 9C89      		ldd r25,Y+20
 3193 052a 0E94 0000 		call __fixunssfsi
 3194 052e DC01      		movw r26,r24
 3195 0530 CB01      		movw r24,r22
 3196 0532 888B      		std Y+16,r24
 3197               	.L50:
 3198 0534 8889      		ldd r24,Y+16
 3199 0536 8983      		std Y+1,r24
 3200               	.LBB42:
 3201               	.LBB43:
 3202               	.LM92:
 3203 0538 8981      		ldd r24,Y+1
 3204               	/* #APP */
 3205               	 ;  83 "/opt/cross/avr/lib/gcc/avr/4.3.3/../../../../avr/include/util/delay_basic.h" 1
 3206 053a 8A95      		1: dec r24
 3207 053c 01F4      		brne 1b
 3208               	 ;  0 "" 2
 3209               	/* #NOAPP */
 3210 053e 8983      		std Y+1,r24
 3211               	.L62:
 3212               	/* epilogue start */
 3213               	.LBE43:
 3214               	.LBE42:
 3215               	.LBE35:
 3216               	.LBE34:
 3217               	.LM93:
 3218 0540 6896      		adiw r28,24
 3219 0542 0FB6      		in __tmp_reg__,__SREG__
 3220 0544 F894      		cli
 3221 0546 DEBF      		out __SP_H__,r29
 3222 0548 0FBE      		out __SREG__,__tmp_reg__
 3223 054a CDBF      		out __SP_L__,r28
 3224 054c CF91      		pop r28
 3225 054e DF91      		pop r29
 3226 0550 0895      		ret
 3227               	.LFE13:
 3229               	.global	clock
 3231               	clock:
 3232               	.LFB14:
 3233               	.LM94:
 3234 0552 DF93      		push r29
 3235 0554 CF93      		push r28
 3236 0556 CDB7      		in r28,__SP_L__
 3237 0558 DEB7      		in r29,__SP_H__
 3238 055a E097      		sbiw r28,48
 3239 055c 0FB6      		in __tmp_reg__,__SREG__
 3240 055e F894      		cli
 3241 0560 DEBF      		out __SP_H__,r29
 3242 0562 0FBE      		out __SREG__,__tmp_reg__
 3243 0564 CDBF      		out __SP_L__,r28
 3244               	/* prologue: function */
 3245               	/* frame size = 48 */
 3246               	.LM95:
 3247 0566 A8E3      		ldi r26,lo8(56)
 3248 0568 B0E0      		ldi r27,hi8(56)
 3249 056a E8E3      		ldi r30,lo8(56)
 3250 056c F0E0      		ldi r31,hi8(56)
 3251 056e 8081      		ld r24,Z
 3252 0570 8064      		ori r24,lo8(64)
 3253 0572 8C93      		st X,r24
 3254 0574 80E0      		ldi r24,lo8(0x40e00000)
 3255 0576 90E0      		ldi r25,hi8(0x40e00000)
 3256 0578 A0EE      		ldi r26,hlo8(0x40e00000)
 3257 057a B0E4      		ldi r27,hhi8(0x40e00000)
 3258 057c 8DA7      		std Y+45,r24
 3259 057e 9EA7      		std Y+46,r25
 3260 0580 AFA7      		std Y+47,r26
 3261 0582 B8AB      		std Y+48,r27
 3262               	.LBB64:
 3263               	.LBB65:
 3264               	.LM96:
 3265 0584 6DA5      		ldd r22,Y+45
 3266 0586 7EA5      		ldd r23,Y+46
 3267 0588 8FA5      		ldd r24,Y+47
 3268 058a 98A9      		ldd r25,Y+48
 3269 058c 2BEA      		ldi r18,lo8(0x402aaaab)
 3270 058e 3AEA      		ldi r19,hi8(0x402aaaab)
 3271 0590 4AE2      		ldi r20,hlo8(0x402aaaab)
 3272 0592 50E4      		ldi r21,hhi8(0x402aaaab)
 3273 0594 0E94 0000 		call __mulsf3
 3274 0598 DC01      		movw r26,r24
 3275 059a CB01      		movw r24,r22
 3276 059c 89A7      		std Y+41,r24
 3277 059e 9AA7      		std Y+42,r25
 3278 05a0 ABA7      		std Y+43,r26
 3279 05a2 BCA7      		std Y+44,r27
 3280               	.LM97:
 3281 05a4 69A5      		ldd r22,Y+41
 3282 05a6 7AA5      		ldd r23,Y+42
 3283 05a8 8BA5      		ldd r24,Y+43
 3284 05aa 9CA5      		ldd r25,Y+44
 3285 05ac 20E0      		ldi r18,lo8(0x3f800000)
 3286 05ae 30E0      		ldi r19,hi8(0x3f800000)
 3287 05b0 40E8      		ldi r20,hlo8(0x3f800000)
 3288 05b2 5FE3      		ldi r21,hhi8(0x3f800000)
 3289 05b4 0E94 0000 		call __ltsf2
 3290 05b8 8823      		tst r24
 3291 05ba 04F4      		brge .L109
 3292               	.L101:
 3293               	.LM98:
 3294 05bc 81E0      		ldi r24,lo8(1)
 3295 05be 88A7      		std Y+40,r24
 3296 05c0 00C0      		rjmp .L74
 3297               	.L109:
 3298               	.LM99:
 3299 05c2 69A5      		ldd r22,Y+41
 3300 05c4 7AA5      		ldd r23,Y+42
 3301 05c6 8BA5      		ldd r24,Y+43
 3302 05c8 9CA5      		ldd r25,Y+44
 3303 05ca 20E0      		ldi r18,lo8(0x437f0000)
 3304 05cc 30E0      		ldi r19,hi8(0x437f0000)
 3305 05ce 4FE7      		ldi r20,hlo8(0x437f0000)
 3306 05d0 53E4      		ldi r21,hhi8(0x437f0000)
 3307 05d2 0E94 0000 		call __gtsf2
 3308 05d6 1816      		cp __zero_reg__,r24
 3309 05d8 04F0      		brlt .+2
 3310 05da 00C0      		rjmp .L110
 3311               	.L102:
 3312               	.LM100:
 3313 05dc 6DA5      		ldd r22,Y+45
 3314 05de 7EA5      		ldd r23,Y+46
 3315 05e0 8FA5      		ldd r24,Y+47
 3316 05e2 98A9      		ldd r25,Y+48
 3317 05e4 20E0      		ldi r18,lo8(0x447a0000)
 3318 05e6 30E0      		ldi r19,hi8(0x447a0000)
 3319 05e8 4AE7      		ldi r20,hlo8(0x447a0000)
 3320 05ea 54E4      		ldi r21,hhi8(0x447a0000)
 3321 05ec 0E94 0000 		call __divsf3
 3322 05f0 DC01      		movw r26,r24
 3323 05f2 CB01      		movw r24,r22
 3324 05f4 8CA3      		std Y+36,r24
 3325 05f6 9DA3      		std Y+37,r25
 3326 05f8 AEA3      		std Y+38,r26
 3327 05fa BFA3      		std Y+39,r27
 3328               	.LBB66:
 3329               	.LBB67:
 3330               	.LM101:
 3331 05fc 6CA1      		ldd r22,Y+36
 3332 05fe 7DA1      		ldd r23,Y+37
 3333 0600 8EA1      		ldd r24,Y+38
 3334 0602 9FA1      		ldd r25,Y+39
 3335 0604 20E0      		ldi r18,lo8(0x44fa0000)
 3336 0606 30E0      		ldi r19,hi8(0x44fa0000)
 3337 0608 4AEF      		ldi r20,hlo8(0x44fa0000)
 3338 060a 54E4      		ldi r21,hhi8(0x44fa0000)
 3339 060c 0E94 0000 		call __mulsf3
 3340 0610 DC01      		movw r26,r24
 3341 0612 CB01      		movw r24,r22
 3342 0614 88A3      		std Y+32,r24
 3343 0616 99A3      		std Y+33,r25
 3344 0618 AAA3      		std Y+34,r26
 3345 061a BBA3      		std Y+35,r27
 3346               	.LM102:
 3347 061c 68A1      		ldd r22,Y+32
 3348 061e 79A1      		ldd r23,Y+33
 3349 0620 8AA1      		ldd r24,Y+34
 3350 0622 9BA1      		ldd r25,Y+35
 3351 0624 20E0      		ldi r18,lo8(0x3f800000)
 3352 0626 30E0      		ldi r19,hi8(0x3f800000)
 3353 0628 40E8      		ldi r20,hlo8(0x3f800000)
 3354 062a 5FE3      		ldi r21,hhi8(0x3f800000)
 3355 062c 0E94 0000 		call __ltsf2
 3356 0630 8823      		tst r24
 3357 0632 04F4      		brge .L111
 3358               	.L103:
 3359               	.LM103:
 3360 0634 81E0      		ldi r24,lo8(1)
 3361 0636 90E0      		ldi r25,hi8(1)
 3362 0638 9F8F      		std Y+31,r25
 3363 063a 8E8F      		std Y+30,r24
 3364 063c 00C0      		rjmp .L79
 3365               	.L111:
 3366               	.LM104:
 3367 063e 68A1      		ldd r22,Y+32
 3368 0640 79A1      		ldd r23,Y+33
 3369 0642 8AA1      		ldd r24,Y+34
 3370 0644 9BA1      		ldd r25,Y+35
 3371 0646 20E0      		ldi r18,lo8(0x477fff00)
 3372 0648 3FEF      		ldi r19,hi8(0x477fff00)
 3373 064a 4FE7      		ldi r20,hlo8(0x477fff00)
 3374 064c 57E4      		ldi r21,hhi8(0x477fff00)
 3375 064e 0E94 0000 		call __gtsf2
 3376 0652 1816      		cp __zero_reg__,r24
 3377 0654 04F4      		brge .L112
 3378               	.L104:
 3379               	.LM105:
 3380 0656 6CA1      		ldd r22,Y+36
 3381 0658 7DA1      		ldd r23,Y+37
 3382 065a 8EA1      		ldd r24,Y+38
 3383 065c 9FA1      		ldd r25,Y+39
 3384 065e 20E0      		ldi r18,lo8(0x41200000)
 3385 0660 30E0      		ldi r19,hi8(0x41200000)
 3386 0662 40E2      		ldi r20,hlo8(0x41200000)
 3387 0664 51E4      		ldi r21,hhi8(0x41200000)
 3388 0666 0E94 0000 		call __mulsf3
 3389 066a DC01      		movw r26,r24
 3390 066c CB01      		movw r24,r22
 3391 066e BC01      		movw r22,r24
 3392 0670 CD01      		movw r24,r26
 3393 0672 0E94 0000 		call __fixunssfsi
 3394 0676 DC01      		movw r26,r24
 3395 0678 CB01      		movw r24,r22
 3396 067a 9F8F      		std Y+31,r25
 3397 067c 8E8F      		std Y+30,r24
 3398 067e 00C0      		rjmp .L82
 3399               	.L83:
 3400 0680 88EC      		ldi r24,lo8(200)
 3401 0682 90E0      		ldi r25,hi8(200)
 3402 0684 9D8F      		std Y+29,r25
 3403 0686 8C8F      		std Y+28,r24
 3404               	.LBB68:
 3405               	.LBB69:
 3406               	.LM106:
 3407 0688 8C8D      		ldd r24,Y+28
 3408 068a 9D8D      		ldd r25,Y+29
 3409               	/* #APP */
 3410               	 ;  105 "/opt/cross/avr/lib/gcc/avr/4.3.3/../../../../avr/include/util/delay_basic.h" 1
 3411 068c 0197      		1: sbiw r24,1
 3412 068e 01F4      		brne 1b
 3413               	 ;  0 "" 2
 3414               	/* #NOAPP */
 3415 0690 9D8F      		std Y+29,r25
 3416 0692 8C8F      		std Y+28,r24
 3417               	.LBE69:
 3418               	.LBE68:
 3419               	.LM107:
 3420 0694 8E8D      		ldd r24,Y+30
 3421 0696 9F8D      		ldd r25,Y+31
 3422 0698 0197      		sbiw r24,1
 3423 069a 9F8F      		std Y+31,r25
 3424 069c 8E8F      		std Y+30,r24
 3425               	.L82:
 3426               	.LM108:
 3427 069e 8E8D      		ldd r24,Y+30
 3428 06a0 9F8D      		ldd r25,Y+31
 3429 06a2 0097      		sbiw r24,0
 3430 06a4 01F4      		brne .L83
 3431 06a6 00C0      		rjmp .L85
 3432               	.L112:
 3433               	.LM109:
 3434 06a8 68A1      		ldd r22,Y+32
 3435 06aa 79A1      		ldd r23,Y+33
 3436 06ac 8AA1      		ldd r24,Y+34
 3437 06ae 9BA1      		ldd r25,Y+35
 3438 06b0 0E94 0000 		call __fixunssfsi
 3439 06b4 DC01      		movw r26,r24
 3440 06b6 CB01      		movw r24,r22
 3441 06b8 9F8F      		std Y+31,r25
 3442 06ba 8E8F      		std Y+30,r24
 3443               	.L79:
 3444 06bc 8E8D      		ldd r24,Y+30
 3445 06be 9F8D      		ldd r25,Y+31
 3446 06c0 9B8F      		std Y+27,r25
 3447 06c2 8A8F      		std Y+26,r24
 3448               	.LBB70:
 3449               	.LBB71:
 3450               	.LM110:
 3451 06c4 8A8D      		ldd r24,Y+26
 3452 06c6 9B8D      		ldd r25,Y+27
 3453               	/* #APP */
 3454               	 ;  105 "/opt/cross/avr/lib/gcc/avr/4.3.3/../../../../avr/include/util/delay_basic.h" 1
 3455 06c8 0197      		1: sbiw r24,1
 3456 06ca 01F4      		brne 1b
 3457               	 ;  0 "" 2
 3458               	/* #NOAPP */
 3459 06cc 9B8F      		std Y+27,r25
 3460 06ce 8A8F      		std Y+26,r24
 3461 06d0 00C0      		rjmp .L85
 3462               	.L110:
 3463               	.LBE71:
 3464               	.LBE70:
 3465               	.LBE67:
 3466               	.LBE66:
 3467               	.LM111:
 3468 06d2 69A5      		ldd r22,Y+41
 3469 06d4 7AA5      		ldd r23,Y+42
 3470 06d6 8BA5      		ldd r24,Y+43
 3471 06d8 9CA5      		ldd r25,Y+44
 3472 06da 0E94 0000 		call __fixunssfsi
 3473 06de DC01      		movw r26,r24
 3474 06e0 CB01      		movw r24,r22
 3475 06e2 88A7      		std Y+40,r24
 3476               	.L74:
 3477 06e4 88A5      		ldd r24,Y+40
 3478 06e6 898F      		std Y+25,r24
 3479               	.LBB72:
 3480               	.LBB73:
 3481               	.LM112:
 3482 06e8 898D      		ldd r24,Y+25
 3483               	/* #APP */
 3484               	 ;  83 "/opt/cross/avr/lib/gcc/avr/4.3.3/../../../../avr/include/util/delay_basic.h" 1
 3485 06ea 8A95      		1: dec r24
 3486 06ec 01F4      		brne 1b
 3487               	 ;  0 "" 2
 3488               	/* #NOAPP */
 3489 06ee 898F      		std Y+25,r24
 3490               	.L85:
 3491               	.LBE73:
 3492               	.LBE72:
 3493               	.LBE65:
 3494               	.LBE64:
 3495               	.LM113:
 3496 06f0 A8E3      		ldi r26,lo8(56)
 3497 06f2 B0E0      		ldi r27,hi8(56)
 3498 06f4 E8E3      		ldi r30,lo8(56)
 3499 06f6 F0E0      		ldi r31,hi8(56)
 3500 06f8 8081      		ld r24,Z
 3501 06fa 8F7B      		andi r24,lo8(-65)
 3502 06fc 8C93      		st X,r24
 3503 06fe 80E0      		ldi r24,lo8(0x40e00000)
 3504 0700 90E0      		ldi r25,hi8(0x40e00000)
 3505 0702 A0EE      		ldi r26,hlo8(0x40e00000)
 3506 0704 B0E4      		ldi r27,hhi8(0x40e00000)
 3507 0706 8D8B      		std Y+21,r24
 3508 0708 9E8B      		std Y+22,r25
 3509 070a AF8B      		std Y+23,r26
 3510 070c B88F      		std Y+24,r27
 3511               	.LBB74:
 3512               	.LBB75:
 3513               	.LM114:
 3514 070e 6D89      		ldd r22,Y+21
 3515 0710 7E89      		ldd r23,Y+22
 3516 0712 8F89      		ldd r24,Y+23
 3517 0714 988D      		ldd r25,Y+24
 3518 0716 2BEA      		ldi r18,lo8(0x402aaaab)
 3519 0718 3AEA      		ldi r19,hi8(0x402aaaab)
 3520 071a 4AE2      		ldi r20,hlo8(0x402aaaab)
 3521 071c 50E4      		ldi r21,hhi8(0x402aaaab)
 3522 071e 0E94 0000 		call __mulsf3
 3523 0722 DC01      		movw r26,r24
 3524 0724 CB01      		movw r24,r22
 3525 0726 898B      		std Y+17,r24
 3526 0728 9A8B      		std Y+18,r25
 3527 072a AB8B      		std Y+19,r26
 3528 072c BC8B      		std Y+20,r27
 3529               	.LM115:
 3530 072e 6989      		ldd r22,Y+17
 3531 0730 7A89      		ldd r23,Y+18
 3532 0732 8B89      		ldd r24,Y+19
 3533 0734 9C89      		ldd r25,Y+20
 3534 0736 20E0      		ldi r18,lo8(0x3f800000)
 3535 0738 30E0      		ldi r19,hi8(0x3f800000)
 3536 073a 40E8      		ldi r20,hlo8(0x3f800000)
 3537 073c 5FE3      		ldi r21,hhi8(0x3f800000)
 3538 073e 0E94 0000 		call __ltsf2
 3539 0742 8823      		tst r24
 3540 0744 04F4      		brge .L113
 3541               	.L105:
 3542               	.LM116:
 3543 0746 81E0      		ldi r24,lo8(1)
 3544 0748 888B      		std Y+16,r24
 3545 074a 00C0      		rjmp .L88
 3546               	.L113:
 3547               	.LM117:
 3548 074c 6989      		ldd r22,Y+17
 3549 074e 7A89      		ldd r23,Y+18
 3550 0750 8B89      		ldd r24,Y+19
 3551 0752 9C89      		ldd r25,Y+20
 3552 0754 20E0      		ldi r18,lo8(0x437f0000)
 3553 0756 30E0      		ldi r19,hi8(0x437f0000)
 3554 0758 4FE7      		ldi r20,hlo8(0x437f0000)
 3555 075a 53E4      		ldi r21,hhi8(0x437f0000)
 3556 075c 0E94 0000 		call __gtsf2
 3557 0760 1816      		cp __zero_reg__,r24
 3558 0762 04F0      		brlt .+2
 3559 0764 00C0      		rjmp .L114
 3560               	.L106:
 3561               	.LM118:
 3562 0766 6D89      		ldd r22,Y+21
 3563 0768 7E89      		ldd r23,Y+22
 3564 076a 8F89      		ldd r24,Y+23
 3565 076c 988D      		ldd r25,Y+24
 3566 076e 20E0      		ldi r18,lo8(0x447a0000)
 3567 0770 30E0      		ldi r19,hi8(0x447a0000)
 3568 0772 4AE7      		ldi r20,hlo8(0x447a0000)
 3569 0774 54E4      		ldi r21,hhi8(0x447a0000)
 3570 0776 0E94 0000 		call __divsf3
 3571 077a DC01      		movw r26,r24
 3572 077c CB01      		movw r24,r22
 3573 077e 8C87      		std Y+12,r24
 3574 0780 9D87      		std Y+13,r25
 3575 0782 AE87      		std Y+14,r26
 3576 0784 BF87      		std Y+15,r27
 3577               	.LBB76:
 3578               	.LBB77:
 3579               	.LM119:
 3580 0786 6C85      		ldd r22,Y+12
 3581 0788 7D85      		ldd r23,Y+13
 3582 078a 8E85      		ldd r24,Y+14
 3583 078c 9F85      		ldd r25,Y+15
 3584 078e 20E0      		ldi r18,lo8(0x44fa0000)
 3585 0790 30E0      		ldi r19,hi8(0x44fa0000)
 3586 0792 4AEF      		ldi r20,hlo8(0x44fa0000)
 3587 0794 54E4      		ldi r21,hhi8(0x44fa0000)
 3588 0796 0E94 0000 		call __mulsf3
 3589 079a DC01      		movw r26,r24
 3590 079c CB01      		movw r24,r22
 3591 079e 8887      		std Y+8,r24
 3592 07a0 9987      		std Y+9,r25
 3593 07a2 AA87      		std Y+10,r26
 3594 07a4 BB87      		std Y+11,r27
 3595               	.LM120:
 3596 07a6 6885      		ldd r22,Y+8
 3597 07a8 7985      		ldd r23,Y+9
 3598 07aa 8A85      		ldd r24,Y+10
 3599 07ac 9B85      		ldd r25,Y+11
 3600 07ae 20E0      		ldi r18,lo8(0x3f800000)
 3601 07b0 30E0      		ldi r19,hi8(0x3f800000)
 3602 07b2 40E8      		ldi r20,hlo8(0x3f800000)
 3603 07b4 5FE3      		ldi r21,hhi8(0x3f800000)
 3604 07b6 0E94 0000 		call __ltsf2
 3605 07ba 8823      		tst r24
 3606 07bc 04F4      		brge .L115
 3607               	.L107:
 3608               	.LM121:
 3609 07be 81E0      		ldi r24,lo8(1)
 3610 07c0 90E0      		ldi r25,hi8(1)
 3611 07c2 9F83      		std Y+7,r25
 3612 07c4 8E83      		std Y+6,r24
 3613 07c6 00C0      		rjmp .L93
 3614               	.L115:
 3615               	.LM122:
 3616 07c8 6885      		ldd r22,Y+8
 3617 07ca 7985      		ldd r23,Y+9
 3618 07cc 8A85      		ldd r24,Y+10
 3619 07ce 9B85      		ldd r25,Y+11
 3620 07d0 20E0      		ldi r18,lo8(0x477fff00)
 3621 07d2 3FEF      		ldi r19,hi8(0x477fff00)
 3622 07d4 4FE7      		ldi r20,hlo8(0x477fff00)
 3623 07d6 57E4      		ldi r21,hhi8(0x477fff00)
 3624 07d8 0E94 0000 		call __gtsf2
 3625 07dc 1816      		cp __zero_reg__,r24
 3626 07de 04F4      		brge .L116
 3627               	.L108:
 3628               	.LM123:
 3629 07e0 6C85      		ldd r22,Y+12
 3630 07e2 7D85      		ldd r23,Y+13
 3631 07e4 8E85      		ldd r24,Y+14
 3632 07e6 9F85      		ldd r25,Y+15
 3633 07e8 20E0      		ldi r18,lo8(0x41200000)
 3634 07ea 30E0      		ldi r19,hi8(0x41200000)
 3635 07ec 40E2      		ldi r20,hlo8(0x41200000)
 3636 07ee 51E4      		ldi r21,hhi8(0x41200000)
 3637 07f0 0E94 0000 		call __mulsf3
 3638 07f4 DC01      		movw r26,r24
 3639 07f6 CB01      		movw r24,r22
 3640 07f8 BC01      		movw r22,r24
 3641 07fa CD01      		movw r24,r26
 3642 07fc 0E94 0000 		call __fixunssfsi
 3643 0800 DC01      		movw r26,r24
 3644 0802 CB01      		movw r24,r22
 3645 0804 9F83      		std Y+7,r25
 3646 0806 8E83      		std Y+6,r24
 3647 0808 00C0      		rjmp .L96
 3648               	.L97:
 3649 080a 88EC      		ldi r24,lo8(200)
 3650 080c 90E0      		ldi r25,hi8(200)
 3651 080e 9D83      		std Y+5,r25
 3652 0810 8C83      		std Y+4,r24
 3653               	.LBB78:
 3654               	.LBB79:
 3655               	.LM124:
 3656 0812 8C81      		ldd r24,Y+4
 3657 0814 9D81      		ldd r25,Y+5
 3658               	/* #APP */
 3659               	 ;  105 "/opt/cross/avr/lib/gcc/avr/4.3.3/../../../../avr/include/util/delay_basic.h" 1
 3660 0816 0197      		1: sbiw r24,1
 3661 0818 01F4      		brne 1b
 3662               	 ;  0 "" 2
 3663               	/* #NOAPP */
 3664 081a 9D83      		std Y+5,r25
 3665 081c 8C83      		std Y+4,r24
 3666               	.LBE79:
 3667               	.LBE78:
 3668               	.LM125:
 3669 081e 8E81      		ldd r24,Y+6
 3670 0820 9F81      		ldd r25,Y+7
 3671 0822 0197      		sbiw r24,1
 3672 0824 9F83      		std Y+7,r25
 3673 0826 8E83      		std Y+6,r24
 3674               	.L96:
 3675               	.LM126:
 3676 0828 8E81      		ldd r24,Y+6
 3677 082a 9F81      		ldd r25,Y+7
 3678 082c 0097      		sbiw r24,0
 3679 082e 01F4      		brne .L97
 3680 0830 00C0      		rjmp .L100
 3681               	.L116:
 3682               	.LM127:
 3683 0832 6885      		ldd r22,Y+8
 3684 0834 7985      		ldd r23,Y+9
 3685 0836 8A85      		ldd r24,Y+10
 3686 0838 9B85      		ldd r25,Y+11
 3687 083a 0E94 0000 		call __fixunssfsi
 3688 083e DC01      		movw r26,r24
 3689 0840 CB01      		movw r24,r22
 3690 0842 9F83      		std Y+7,r25
 3691 0844 8E83      		std Y+6,r24
 3692               	.L93:
 3693 0846 8E81      		ldd r24,Y+6
 3694 0848 9F81      		ldd r25,Y+7
 3695 084a 9B83      		std Y+3,r25
 3696 084c 8A83      		std Y+2,r24
 3697               	.LBB80:
 3698               	.LBB81:
 3699               	.LM128:
 3700 084e 8A81      		ldd r24,Y+2
 3701 0850 9B81      		ldd r25,Y+3
 3702               	/* #APP */
 3703               	 ;  105 "/opt/cross/avr/lib/gcc/avr/4.3.3/../../../../avr/include/util/delay_basic.h" 1
 3704 0852 0197      		1: sbiw r24,1
 3705 0854 01F4      		brne 1b
 3706               	 ;  0 "" 2
 3707               	/* #NOAPP */
 3708 0856 9B83      		std Y+3,r25
 3709 0858 8A83      		std Y+2,r24
 3710 085a 00C0      		rjmp .L100
 3711               	.L114:
 3712               	.LBE81:
 3713               	.LBE80:
 3714               	.LBE77:
 3715               	.LBE76:
 3716               	.LM129:
 3717 085c 6989      		ldd r22,Y+17
 3718 085e 7A89      		ldd r23,Y+18
 3719 0860 8B89      		ldd r24,Y+19
 3720 0862 9C89      		ldd r25,Y+20
 3721 0864 0E94 0000 		call __fixunssfsi
 3722 0868 DC01      		movw r26,r24
 3723 086a CB01      		movw r24,r22
 3724 086c 888B      		std Y+16,r24
 3725               	.L88:
 3726 086e 8889      		ldd r24,Y+16
 3727 0870 8983      		std Y+1,r24
 3728               	.LBB82:
 3729               	.LBB83:
 3730               	.LM130:
 3731 0872 8981      		ldd r24,Y+1
 3732               	/* #APP */
 3733               	 ;  83 "/opt/cross/avr/lib/gcc/avr/4.3.3/../../../../avr/include/util/delay_basic.h" 1
 3734 0874 8A95      		1: dec r24
 3735 0876 01F4      		brne 1b
 3736               	 ;  0 "" 2
 3737               	/* #NOAPP */
 3738 0878 8983      		std Y+1,r24
 3739               	.L100:
 3740               	/* epilogue start */
 3741               	.LBE83:
 3742               	.LBE82:
 3743               	.LBE75:
 3744               	.LBE74:
 3745               	.LM131:
 3746 087a E096      		adiw r28,48
 3747 087c 0FB6      		in __tmp_reg__,__SREG__
 3748 087e F894      		cli
 3749 0880 DEBF      		out __SP_H__,r29
 3750 0882 0FBE      		out __SREG__,__tmp_reg__
 3751 0884 CDBF      		out __SP_L__,r28
 3752 0886 CF91      		pop r28
 3753 0888 DF91      		pop r29
 3754 088a 0895      		ret
 3755               	.LFE14:
 3757               	.global	display0
 3759               	display0:
 3760               	.LFB15:
 3761               	.LM132:
 3762 088c DF93      		push r29
 3763 088e CF93      		push r28
 3764 0890 CDB7      		in r28,__SP_L__
 3765 0892 DEB7      		in r29,__SP_H__
 3766               	/* prologue: function */
 3767               	/* frame size = 0 */
 3768               	.LM133:
 3769 0894 A8E3      		ldi r26,lo8(56)
 3770 0896 B0E0      		ldi r27,hi8(56)
 3771 0898 E8E3      		ldi r30,lo8(56)
 3772 089a F0E0      		ldi r31,hi8(56)
 3773 089c 8081      		ld r24,Z
 3774 089e 8E7F      		andi r24,lo8(-2)
 3775 08a0 8C93      		st X,r24
 3776               	/* epilogue start */
 3777               	.LM134:
 3778 08a2 CF91      		pop r28
 3779 08a4 DF91      		pop r29
 3780 08a6 0895      		ret
 3781               	.LFE15:
 3783               	.global	display1
 3785               	display1:
 3786               	.LFB16:
 3787               	.LM135:
 3788 08a8 DF93      		push r29
 3789 08aa CF93      		push r28
 3790 08ac CDB7      		in r28,__SP_L__
 3791 08ae DEB7      		in r29,__SP_H__
 3792               	/* prologue: function */
 3793               	/* frame size = 0 */
 3794               	.LM136:
 3795 08b0 A8E3      		ldi r26,lo8(56)
 3796 08b2 B0E0      		ldi r27,hi8(56)
 3797 08b4 E8E3      		ldi r30,lo8(56)
 3798 08b6 F0E0      		ldi r31,hi8(56)
 3799 08b8 8081      		ld r24,Z
 3800 08ba 8160      		ori r24,lo8(1)
 3801 08bc 8C93      		st X,r24
 3802               	/* epilogue start */
 3803               	.LM137:
 3804 08be CF91      		pop r28
 3805 08c0 DF91      		pop r29
 3806 08c2 0895      		ret
 3807               	.LFE16:
 3809               	.global	Blink0
 3811               	Blink0:
 3812               	.LFB17:
 3813               	.LM138:
 3814 08c4 DF93      		push r29
 3815 08c6 CF93      		push r28
 3816 08c8 CDB7      		in r28,__SP_L__
 3817 08ca DEB7      		in r29,__SP_H__
 3818               	/* prologue: function */
 3819               	/* frame size = 0 */
 3820               	.LM139:
 3821 08cc A8E3      		ldi r26,lo8(56)
 3822 08ce B0E0      		ldi r27,hi8(56)
 3823 08d0 E8E3      		ldi r30,lo8(56)
 3824 08d2 F0E0      		ldi r31,hi8(56)
 3825 08d4 8081      		ld r24,Z
 3826 08d6 8F7E      		andi r24,lo8(-17)
 3827 08d8 8C93      		st X,r24
 3828               	/* epilogue start */
 3829               	.LM140:
 3830 08da CF91      		pop r28
 3831 08dc DF91      		pop r29
 3832 08de 0895      		ret
 3833               	.LFE17:
 3835               	.global	Blink1
 3837               	Blink1:
 3838               	.LFB18:
 3839               	.LM141:
 3840 08e0 DF93      		push r29
 3841 08e2 CF93      		push r28
 3842 08e4 CDB7      		in r28,__SP_L__
 3843 08e6 DEB7      		in r29,__SP_H__
 3844               	/* prologue: function */
 3845               	/* frame size = 0 */
 3846               	.LM142:
 3847 08e8 A8E3      		ldi r26,lo8(56)
 3848 08ea B0E0      		ldi r27,hi8(56)
 3849 08ec E8E3      		ldi r30,lo8(56)
 3850 08ee F0E0      		ldi r31,hi8(56)
 3851 08f0 8081      		ld r24,Z
 3852 08f2 8061      		ori r24,lo8(16)
 3853 08f4 8C93      		st X,r24
 3854               	/* epilogue start */
 3855               	.LM143:
 3856 08f6 CF91      		pop r28
 3857 08f8 DF91      		pop r29
 3858 08fa 0895      		ret
 3859               	.LFE18:
 3861               	.global	TogBlink
 3863               	TogBlink:
 3864               	.LFB19:
 3865               	.LM144:
 3866 08fc DF93      		push r29
 3867 08fe CF93      		push r28
 3868 0900 CDB7      		in r28,__SP_L__
 3869 0902 DEB7      		in r29,__SP_H__
 3870               	/* prologue: function */
 3871               	/* frame size = 0 */
 3872               	.LM145:
 3873 0904 A8E3      		ldi r26,lo8(56)
 3874 0906 B0E0      		ldi r27,hi8(56)
 3875 0908 E8E3      		ldi r30,lo8(56)
 3876 090a F0E0      		ldi r31,hi8(56)
 3877 090c 9081      		ld r25,Z
 3878 090e 80E1      		ldi r24,lo8(16)
 3879 0910 8927      		eor r24,r25
 3880 0912 8C93      		st X,r24
 3881               	/* epilogue start */
 3882               	.LM146:
 3883 0914 CF91      		pop r28
 3884 0916 DF91      		pop r29
 3885 0918 0895      		ret
 3886               	.LFE19:
 3888               	.global	RedLed0
 3890               	RedLed0:
 3891               	.LFB20:
 3892               	.LM147:
 3893 091a DF93      		push r29
 3894 091c CF93      		push r28
 3895 091e CDB7      		in r28,__SP_L__
 3896 0920 DEB7      		in r29,__SP_H__
 3897               	/* prologue: function */
 3898               	/* frame size = 0 */
 3899               	.LM148:
 3900 0922 A5E3      		ldi r26,lo8(53)
 3901 0924 B0E0      		ldi r27,hi8(53)
 3902 0926 E5E3      		ldi r30,lo8(53)
 3903 0928 F0E0      		ldi r31,hi8(53)
 3904 092a 8081      		ld r24,Z
 3905 092c 8F77      		andi r24,lo8(127)
 3906 092e 8C93      		st X,r24
 3907               	/* epilogue start */
 3908               	.LM149:
 3909 0930 CF91      		pop r28
 3910 0932 DF91      		pop r29
 3911 0934 0895      		ret
 3912               	.LFE20:
 3914               	.global	RedLed1
 3916               	RedLed1:
 3917               	.LFB21:
 3918               	.LM150:
 3919 0936 DF93      		push r29
 3920 0938 CF93      		push r28
 3921 093a CDB7      		in r28,__SP_L__
 3922 093c DEB7      		in r29,__SP_H__
 3923               	/* prologue: function */
 3924               	/* frame size = 0 */
 3925               	.LM151:
 3926 093e A5E3      		ldi r26,lo8(53)
 3927 0940 B0E0      		ldi r27,hi8(53)
 3928 0942 E5E3      		ldi r30,lo8(53)
 3929 0944 F0E0      		ldi r31,hi8(53)
 3930 0946 8081      		ld r24,Z
 3931 0948 8068      		ori r24,lo8(-128)
 3932 094a 8C93      		st X,r24
 3933               	/* epilogue start */
 3934               	.LM152:
 3935 094c CF91      		pop r28
 3936 094e DF91      		pop r29
 3937 0950 0895      		ret
 3938               	.LFE21:
 3940               	.global	TogRedLed
 3942               	TogRedLed:
 3943               	.LFB22:
 3944               	.LM153:
 3945 0952 DF93      		push r29
 3946 0954 CF93      		push r28
 3947 0956 CDB7      		in r28,__SP_L__
 3948 0958 DEB7      		in r29,__SP_H__
 3949               	/* prologue: function */
 3950               	/* frame size = 0 */
 3951               	.LM154:
 3952 095a A5E3      		ldi r26,lo8(53)
 3953 095c B0E0      		ldi r27,hi8(53)
 3954 095e E5E3      		ldi r30,lo8(53)
 3955 0960 F0E0      		ldi r31,hi8(53)
 3956 0962 9081      		ld r25,Z
 3957 0964 80E8      		ldi r24,lo8(-128)
 3958 0966 8927      		eor r24,r25
 3959 0968 8C93      		st X,r24
 3960               	/* epilogue start */
 3961               	.LM155:
 3962 096a CF91      		pop r28
 3963 096c DF91      		pop r29
 3964 096e 0895      		ret
 3965               	.LFE22:
 3967               	.global	GreenLed0
 3969               	GreenLed0:
 3970               	.LFB23:
 3971               	.LM156:
 3972 0970 DF93      		push r29
 3973 0972 CF93      		push r28
 3974 0974 CDB7      		in r28,__SP_L__
 3975 0976 DEB7      		in r29,__SP_H__
 3976               	/* prologue: function */
 3977               	/* frame size = 0 */
 3978               	.LM157:
 3979 0978 A5E3      		ldi r26,lo8(53)
 3980 097a B0E0      		ldi r27,hi8(53)
 3981 097c E5E3      		ldi r30,lo8(53)
 3982 097e F0E0      		ldi r31,hi8(53)
 3983 0980 8081      		ld r24,Z
 3984 0982 8F7E      		andi r24,lo8(-17)
 3985 0984 8C93      		st X,r24
 3986               	/* epilogue start */
 3987               	.LM158:
 3988 0986 CF91      		pop r28
 3989 0988 DF91      		pop r29
 3990 098a 0895      		ret
 3991               	.LFE23:
 3993               	.global	GreenLed1
 3995               	GreenLed1:
 3996               	.LFB24:
 3997               	.LM159:
 3998 098c DF93      		push r29
 3999 098e CF93      		push r28
 4000 0990 CDB7      		in r28,__SP_L__
 4001 0992 DEB7      		in r29,__SP_H__
 4002               	/* prologue: function */
 4003               	/* frame size = 0 */
 4004               	.LM160:
 4005 0994 A5E3      		ldi r26,lo8(53)
 4006 0996 B0E0      		ldi r27,hi8(53)
 4007 0998 E5E3      		ldi r30,lo8(53)
 4008 099a F0E0      		ldi r31,hi8(53)
 4009 099c 8081      		ld r24,Z
 4010 099e 8061      		ori r24,lo8(16)
 4011 09a0 8C93      		st X,r24
 4012               	/* epilogue start */
 4013               	.LM161:
 4014 09a2 CF91      		pop r28
 4015 09a4 DF91      		pop r29
 4016 09a6 0895      		ret
 4017               	.LFE24:
 4019               	.global	TogGreenLed
 4021               	TogGreenLed:
 4022               	.LFB25:
 4023               	.LM162:
 4024 09a8 DF93      		push r29
 4025 09aa CF93      		push r28
 4026 09ac CDB7      		in r28,__SP_L__
 4027 09ae DEB7      		in r29,__SP_H__
 4028               	/* prologue: function */
 4029               	/* frame size = 0 */
 4030               	.LM163:
 4031 09b0 A5E3      		ldi r26,lo8(53)
 4032 09b2 B0E0      		ldi r27,hi8(53)
 4033 09b4 E5E3      		ldi r30,lo8(53)
 4034 09b6 F0E0      		ldi r31,hi8(53)
 4035 09b8 9081      		ld r25,Z
 4036 09ba 80E1      		ldi r24,lo8(16)
 4037 09bc 8927      		eor r24,r25
 4038 09be 8C93      		st X,r24
 4039               	/* epilogue start */
 4040               	.LM164:
 4041 09c0 CF91      		pop r28
 4042 09c2 DF91      		pop r29
 4043 09c4 0895      		ret
 4044               	.LFE25:
 4046               	.global	__vector_13
 4048               	__vector_13:
 4049               	.LFB26:
 4050               	.LM165:
 4051 09c6 1F92      		push __zero_reg__
 4052 09c8 0F92      		push r0
 4053 09ca 0FB6      		in r0,__SREG__
 4054 09cc 0F92      		push r0
 4055 09ce 1124      		clr __zero_reg__
 4056 09d0 2F93      		push r18
 4057 09d2 3F93      		push r19
 4058 09d4 4F93      		push r20
 4059 09d6 5F93      		push r21
 4060 09d8 6F93      		push r22
 4061 09da 7F93      		push r23
 4062 09dc 8F93      		push r24
 4063 09de 9F93      		push r25
 4064 09e0 AF93      		push r26
 4065 09e2 BF93      		push r27
 4066 09e4 EF93      		push r30
 4067 09e6 FF93      		push r31
 4068 09e8 DF93      		push r29
 4069 09ea CF93      		push r28
 4070 09ec CDB7      		in r28,__SP_L__
 4071 09ee DEB7      		in r29,__SP_H__
 4072               	/* prologue: Signal */
 4073               	/* frame size = 0 */
 4074               	.LM166:
 4075 09f0 ECE2      		ldi r30,lo8(44)
 4076 09f2 F0E0      		ldi r31,hi8(44)
 4077 09f4 8081      		ld r24,Z
 4078 09f6 0E94 0000 		call RxUsbURxRs232Verarbeiten
 4079               	/* epilogue start */
 4080               	.LM167:
 4081 09fa CF91      		pop r28
 4082 09fc DF91      		pop r29
 4083 09fe FF91      		pop r31
 4084 0a00 EF91      		pop r30
 4085 0a02 BF91      		pop r27
 4086 0a04 AF91      		pop r26
 4087 0a06 9F91      		pop r25
 4088 0a08 8F91      		pop r24
 4089 0a0a 7F91      		pop r23
 4090 0a0c 6F91      		pop r22
 4091 0a0e 5F91      		pop r21
 4092 0a10 4F91      		pop r20
 4093 0a12 3F91      		pop r19
 4094 0a14 2F91      		pop r18
 4095 0a16 0F90      		pop r0
 4096 0a18 0FBE      		out __SREG__,r0
 4097 0a1a 0F90      		pop r0
 4098 0a1c 1F90      		pop __zero_reg__
 4099 0a1e 1895      		reti
 4100               	.LFE26:
 4102               	.global	RxUsbURxRs232Verarbeiten
 4104               	RxUsbURxRs232Verarbeiten:
 4105               	.LFB27:
 4106               	.LM168:
 4107 0a20 DF93      		push r29
 4108 0a22 CF93      		push r28
 4109 0a24 0F92      		push __tmp_reg__
 4110 0a26 CDB7      		in r28,__SP_L__
 4111 0a28 DEB7      		in r29,__SP_H__
 4112               	/* prologue: function */
 4113               	/* frame size = 1 */
 4114 0a2a 8983      		std Y+1,r24
 4115               	/* epilogue start */
 4116               	.LM169:
 4117 0a2c 0F90      		pop __tmp_reg__
 4118 0a2e CF91      		pop r28
 4119 0a30 DF91      		pop r29
 4120 0a32 0895      		ret
 4121               	.LFE27:
 4123               	.global	__vector_7
 4125               	__vector_7:
 4126               	.LFB28:
 4127               	.LM170:
 4128 0a34 1F92      		push __zero_reg__
 4129 0a36 0F92      		push r0
 4130 0a38 0FB6      		in r0,__SREG__
 4131 0a3a 0F92      		push r0
 4132 0a3c 1124      		clr __zero_reg__
 4133 0a3e 2F93      		push r18
 4134 0a40 3F93      		push r19
 4135 0a42 4F93      		push r20
 4136 0a44 5F93      		push r21
 4137 0a46 6F93      		push r22
 4138 0a48 7F93      		push r23
 4139 0a4a 8F93      		push r24
 4140 0a4c 9F93      		push r25
 4141 0a4e AF93      		push r26
 4142 0a50 BF93      		push r27
 4143 0a52 EF93      		push r30
 4144 0a54 FF93      		push r31
 4145 0a56 DF93      		push r29
 4146 0a58 CF93      		push r28
 4147 0a5a CDB7      		in r28,__SP_L__
 4148 0a5c DEB7      		in r29,__SP_H__
 4149               	/* prologue: Signal */
 4150               	/* frame size = 0 */
 4151               	.LM171:
 4152 0a5e 8091 0000 		lds r24,CharMoveTimer
 4153 0a62 8F5F      		subi r24,lo8(-(1))
 4154 0a64 8093 0000 		sts CharMoveTimer,r24
 4155               	.LM172:
 4156 0a68 8091 0000 		lds r24,CharMoveTimer
 4157 0a6c 8233      		cpi r24,lo8(50)
 4158 0a6e 01F4      		brne .L144
 4159               	.LM173:
 4160 0a70 1092 0000 		sts CharMoveTimer,__zero_reg__
 4161               	.LM174:
 4162 0a74 81E0      		ldi r24,lo8(1)
 4163 0a76 8093 0000 		sts CharMoveSub,r24
 4164               	.L144:
 4165               	.LM175:
 4166 0a7a 8091 0000 		lds r24,BlinkTimer
 4167 0a7e 8F5F      		subi r24,lo8(-(1))
 4168 0a80 8093 0000 		sts BlinkTimer,r24
 4169               	.LM176:
 4170 0a84 8091 0000 		lds r24,BlinkTimer
 4171 0a88 883C      		cpi r24,lo8(-56)
 4172 0a8a 01F4      		brne .L146
 4173               	.LM177:
 4174 0a8c 1092 0000 		sts BlinkTimer,__zero_reg__
 4175               	.LM178:
 4176 0a90 0E94 0000 		call TogBlink
 4177               	.LM179:
 4178 0a94 0E94 0000 		call TogGreenLed
 4179               	.L146:
 4180               	/* epilogue start */
 4181               	.LM180:
 4182 0a98 CF91      		pop r28
 4183 0a9a DF91      		pop r29
 4184 0a9c FF91      		pop r31
 4185 0a9e EF91      		pop r30
 4186 0aa0 BF91      		pop r27
 4187 0aa2 AF91      		pop r26
 4188 0aa4 9F91      		pop r25
 4189 0aa6 8F91      		pop r24
 4190 0aa8 7F91      		pop r23
 4191 0aaa 6F91      		pop r22
 4192 0aac 5F91      		pop r21
 4193 0aae 4F91      		pop r20
 4194 0ab0 3F91      		pop r19
 4195 0ab2 2F91      		pop r18
 4196 0ab4 0F90      		pop r0
 4197 0ab6 0FBE      		out __SREG__,r0
 4198 0ab8 0F90      		pop r0
 4199 0aba 1F90      		pop __zero_reg__
 4200 0abc 1895      		reti
 4201               	.LFE28:
 4203               		.comm CharPosition,1,1
 4204               		.comm AktuellerChar,1,1
 4205               		.comm CharMoveTimer,1,1
 4206               		.comm CharMoveSub,1,1
 4207               		.comm BlinkTimer,1,1
 4208               		.comm TextPos,1,1
 4209               		.comm CharBlink,1,1
 4410               	.Letext0:
DEFINED SYMBOLS
                            *ABS*:0000000000000000 main.c
     /tmp/cchniiKa.s:2      *ABS*:000000000000003f __SREG__
     /tmp/cchniiKa.s:3      *ABS*:000000000000003e __SP_H__
     /tmp/cchniiKa.s:4      *ABS*:000000000000003d __SP_L__
     /tmp/cchniiKa.s:5      *ABS*:0000000000000034 __CCP__
     /tmp/cchniiKa.s:6      *ABS*:0000000000000000 __tmp_reg__
     /tmp/cchniiKa.s:7      *ABS*:0000000000000001 __zero_reg__
     /tmp/cchniiKa.s:22     .progmem.data:0000000000000000 font
     /tmp/cchniiKa.s:2333   .text:0000000000000000 main
     /tmp/cchniiKa.s:2414   .text:0000000000000084 InitPorts
     /tmp/cchniiKa.s:2459   .text:00000000000000c0 InitTimer
                            *COM*:0000000000000001 CharPosition
                            *COM*:0000000000000001 CharMoveTimer
                            *COM*:0000000000000001 CharMoveSub
                            *COM*:0000000000000001 CharBlink
                            *COM*:0000000000000001 TextPos
                            *COM*:0000000000000001 AktuellerChar
     /tmp/cchniiKa.s:2501   .text:00000000000000f6 WrtiteCharOut
     /tmp/cchniiKa.s:3759   .text:000000000000088c display0
     /tmp/cchniiKa.s:2631   .text:00000000000001c6 LZSend0
     /tmp/cchniiKa.s:2652   .text:00000000000001dc LZSend1
     /tmp/cchniiKa.s:3785   .text:00000000000008a8 display1
     /tmp/cchniiKa.s:3942   .text:0000000000000952 TogRedLed
     /tmp/cchniiKa.s:2673   .text:00000000000001f2 data0
     /tmp/cchniiKa.s:3231   .text:0000000000000552 clock
     /tmp/cchniiKa.s:2952   .text:00000000000003a2 data1
     /tmp/cchniiKa.s:3811   .text:00000000000008c4 Blink0
     /tmp/cchniiKa.s:3837   .text:00000000000008e0 Blink1
     /tmp/cchniiKa.s:3863   .text:00000000000008fc TogBlink
     /tmp/cchniiKa.s:3890   .text:000000000000091a RedLed0
     /tmp/cchniiKa.s:3916   .text:0000000000000936 RedLed1
     /tmp/cchniiKa.s:3969   .text:0000000000000970 GreenLed0
     /tmp/cchniiKa.s:3995   .text:000000000000098c GreenLed1
     /tmp/cchniiKa.s:4021   .text:00000000000009a8 TogGreenLed
     /tmp/cchniiKa.s:4048   .text:00000000000009c6 __vector_13
     /tmp/cchniiKa.s:4104   .text:0000000000000a20 RxUsbURxRs232Verarbeiten
     /tmp/cchniiKa.s:4125   .text:0000000000000a34 __vector_7
                            *COM*:0000000000000001 BlinkTimer

UNDEFINED SYMBOLS
__do_copy_data
__do_clear_bss
UARTInit
__mulsf3
__ltsf2
__gtsf2
__divsf3
__fixunssfsi
